

Microchip Technology PIC18 LITE Macro Assembler V2.00 build -1524193055 
                                                                                               Fri Dec 28 11:47:20 2018

Microchip Technology Omniscient Code Generator v2.00 (Free mode) build 20180527130849
     1  0000                     
     2                           ; Version 2.00
     3                           ; Generated 27/05/2018 GMT
     4                           
     5                           ; 
     6                           ; Copyright © 2018, Microchip Technology Inc. and its subsidiaries ("Microchip")
     7                           ; All rights reserved.
     8                           ; 
     9                           ; This software is developed by Microchip Technology Inc. and its subsidiaries ("Microch
                                 ip").
    10                           ; 
    11                           ; Redistribution and use in source and binary forms, with or without modification, are
    12                           ; permitted provided that the following conditions are met:
    13                           ; 
    14                           ;     1. Redistributions of source code must retain the above copyright notice, this lis
                                 t of
    15                           ;        conditions and the following disclaimer.
    16                           ; 
    17                           ;     2. Redistributions in binary form must reproduce the above copyright notice, this 
                                 list
    18                           ;        of conditions and the following disclaimer in the documentation and/or other
    19                           ;        materials provided with the distribution.
    20                           ; 
    21                           ;     3. Microchip's name may not be used to endorse or promote products derived from th
                                 is
    22                           ;        software without specific prior written permission.
    23                           ; 
    24                           ; THIS SOFTWARE IS PROVIDED BY MICROCHIP "AS IS" AND ANY EXPRESS OR IMPLIED WARRANTIES,

    25                           ; INCLUDING, BUT NOT LIMITED TO, THE IMPLIED WARRANTIES OF MERCHANTABILITY AND FITNESS F
                                 OR
    26                           ; PURPOSE ARE DISCLAIMED.  IN NO EVENT SHALL MICROCHIP BE LIABLE FOR ANY DIRECT, INDIREC
                                 T,
    27                           ; INCIDENTAL, SPECIAL, EXEMPLARY, OR CONSEQUENTIAL DAMAGES (INCLUDING BUT NOT LIMITED TO
                                 
    28                           ; PROCUREMENT OF SUBSTITUTE GOODS OR SERVICES; LOSS OF USE, DATA OR PROFITS; OR BUSINESS
                                 
    29                           ; INTERRUPTION) HOWSOEVER CAUSED AND ON ANY THEORY OF LIABILITY, WHETHER IN CONTRACT, ST
                                 RICT
    30                           ; LIABILITY, OR TORT (INCLUDING NEGLIGENCE OR OTHERWISE) ARISING IN ANY WAY OUT OF THE U
                                 SE OF
    31                           ; THIS SOFTWARE, EVEN IF ADVISED OF THE POSSIBILITY OF SUCH DAMAGE.
    32                           ; 
    33                           
    34                           
    35                           ; 
    36                           ; Code-generator required, PIC18F45K22 Definitions
    37                           ; 
    38  0000                     fsr0 equ 0FE9h
    39  0000                     fsr0h equ 0FEAh
    40  0000                     fsr0l equ 0FE9h
    41  0000                     fsr1 equ 0FE1h
    42  0000                     fsr1h equ 0FE2h
    43  0000                     fsr1l equ 0FE1h
    44  0000                     fsr2 equ 0FD9h
    45  0000                     fsr2h equ 0FDAh
    46  0000                     fsr2l equ 0FD9h
    47  0000                     indf0 equ 0FEFh
    48  0000                     indf1 equ 0FE7h
    49  0000                     indf2 equ 0FDFh
    50  0000                     intcon equ 0FF2h
    51  0000                     nvmcon equ 00h
    52  0000                     pcl equ 0FF9h
    53  0000                     pclath equ 0FFAh
    54  0000                     pclatu equ 0FFBh
    55  0000                     plusw0 equ 0FEBh
    56  0000                     plusw1 equ 0FE3h
    57  0000                     plusw2 equ 0FDBh
    58  0000                     postdec0 equ 0FEDh
    59  0000                     postdec1 equ 0FE5h
    60  0000                     postdec2 equ 0FDDh
    61  0000                     postinc0 equ 0FEEh
    62  0000                     postinc1 equ 0FE6h
    63  0000                     postinc2 equ 0FDEh
    64  0000                     preinc0 equ 0FECh
    65  0000                     preinc1 equ 0FE4h
    66  0000                     preinc2 equ 0FDCh
    67  0000                     prod equ 0FF3h
    68  0000                     prodh equ 0FF4h
    69  0000                     prodl equ 0FF3h
    70  0000                     status equ 0FD8h
    71  0000                     tablat equ 0FF5h
    72  0000                     tblptr equ 0FF6h
    73  0000                     tblptrh equ 0FF7h
    74  0000                     tblptrl equ 0FF6h
    75  0000                     tblptru equ 0FF8h
    76  0000                     tosl equ 0FFDh
    77  0000                     wreg equ 0FE8h
    78  0000                     
     2                           opt pagewidth 120
     3  0000                     byte0	macro	val
     4                           	(getbyte(val,0))
     5                           endm
     6  0000                     byte1	macro	val
     7                           	(getbyte(val,1))
     8                           endm
     9  0000                     byte2	macro	val
    10                           	(getbyte(val,2))
    11                           endm
    12  0000                     byte3	macro	val
    13                           	(getbyte(val,3))
    14                           endm
    15  0000                     byte4	macro	val
    16                           	(getbyte(val,4))
    17                           endm
    18  0000                     byte5	macro	val
    19                           	(getbyte(val,5))
    20                           endm
    21  0000                     byte6	macro	val
    22                           	(getbyte(val,6))
    23                           endm
    24  0000                     byte7	macro	val
    25                           	(getbyte(val,7))
    26                           endm
    27  0000                     getword	macro	val,pos
    28                           	(((val) >> (8 * pos)) and 0xffff)
    29                           endm
    30  0000                     word0	macro	val
    31                           	(getword(val,0))
    32                           endm
    33  0000                     word1	macro	val
    34                           	(getword(val,2))
    35                           endm
    36  0000                     word2	macro	val
    37                           	(getword(val,4))
    38                           endm
    39  0000                     word3	macro	val
    40                           	(getword(val,6))
    41                           endm
    42  0000                     gettword	macro	val,pos
    43                           	(((val) >> (8 * pos)) and 0xffffff)
    44                           endm
    45  0000                     tword0	macro	val
    46                           	(gettword(val,0))
    47                           endm
    48  0000                     tword1	macro	val
    49                           	(gettword(val,3))
    50                           endm
    51  0000                     tword2	macro	val
    52                           	(gettword(val,6))
    53                           endm
    54  0000                     getdword	macro	val,pos
    55                           	(((val) >> (8 * pos)) and 0xffffffff)
    56                           endm
    57  0000                     dword0	macro	val
    58                           	(getdword(val,0))
    59                           endm
    60  0000                     dword1	macro	val
    61                           	(getdword(val,4))
    62                           endm
    63  0000                     clrc   macro
    64                           	bcf	status,0
    65                           endm
    66  0000                     setc   macro
    67                           	bsf	status,0
    68                           endm
    69  0000                     clrz   macro
    70                           	bcf	status,2
    71                           endm
    72  0000                     setz   macro
    73                           	bsf	status,2
    74                           endm
    75  0000                     skipnz macro
    76                           	btfsc	status,2
    77                           endm
    78  0000                     skipz  macro
    79                           	btfss	status,2
    80                           endm
    81  0000                     skipnc macro
    82                           	btfsc	status,0
    83                           endm
    84  0000                     skipc  macro
    85                           	btfss	status,0
    86                           endm
    87  0000                     pushw macro
    88                           	movwf postinc1
    89                           endm
    90  0000                     pushf macro arg1
    91                           	movff arg1, postinc1
    92                           endm
    93  0000                     popw macro
    94                           	movf postdec1,f
    95                           	movf indf1,w
    96                           endm
    97  0000                     popf macro arg1
    98                           	movf postdec1,f
    99                           	movff indf1,arg1
   100                           endm
   101  0000                     popfc macro arg1
   102                           	movff plusw1,arg1
   103                           	decfsz fsr1,f
   104                           endm
   105  0000                     	global	__ramtop
   106                           	global	__accesstop
   107                           # 54 "/opt/microchip/xc8/v2.00/pic/include/pic18f45k22.h"
   108                           ANSELA equ 0F38h ;# 
   109  0000                     # 99 "/opt/microchip/xc8/v2.00/pic/include/pic18f45k22.h"
   110                           ANSELB equ 0F39h ;# 
   111  0000                     # 149 "/opt/microchip/xc8/v2.00/pic/include/pic18f45k22.h"
   112                           ANSELC equ 0F3Ah ;# 
   113  0000                     # 200 "/opt/microchip/xc8/v2.00/pic/include/pic18f45k22.h"
   114                           ANSELD equ 0F3Bh ;# 
   115  0000                     # 262 "/opt/microchip/xc8/v2.00/pic/include/pic18f45k22.h"
   116                           ANSELE equ 0F3Ch ;# 
   117  0000                     # 294 "/opt/microchip/xc8/v2.00/pic/include/pic18f45k22.h"
   118                           PMD2 equ 0F3Dh ;# 
   119  0000                     # 332 "/opt/microchip/xc8/v2.00/pic/include/pic18f45k22.h"
   120                           PMD1 equ 0F3Eh ;# 
   121  0000                     # 397 "/opt/microchip/xc8/v2.00/pic/include/pic18f45k22.h"
   122                           PMD0 equ 0F3Fh ;# 
   123  0000                     # 474 "/opt/microchip/xc8/v2.00/pic/include/pic18f45k22.h"
   124                           VREFCON2 equ 0F40h ;# 
   125  0000                     # 479 "/opt/microchip/xc8/v2.00/pic/include/pic18f45k22.h"
   126                           DACCON1 equ 0F40h ;# 
   127  0000                     # 576 "/opt/microchip/xc8/v2.00/pic/include/pic18f45k22.h"
   128                           VREFCON1 equ 0F41h ;# 
   129  0000                     # 581 "/opt/microchip/xc8/v2.00/pic/include/pic18f45k22.h"
   130                           DACCON0 equ 0F41h ;# 
   131  0000                     # 696 "/opt/microchip/xc8/v2.00/pic/include/pic18f45k22.h"
   132                           VREFCON0 equ 0F42h ;# 
   133  0000                     # 701 "/opt/microchip/xc8/v2.00/pic/include/pic18f45k22.h"
   134                           FVRCON equ 0F42h ;# 
   135  0000                     # 790 "/opt/microchip/xc8/v2.00/pic/include/pic18f45k22.h"
   136                           CTMUICON equ 0F43h ;# 
   137  0000                     # 795 "/opt/microchip/xc8/v2.00/pic/include/pic18f45k22.h"
   138                           CTMUICONH equ 0F43h ;# 
   139  0000                     # 940 "/opt/microchip/xc8/v2.00/pic/include/pic18f45k22.h"
   140                           CTMUCONL equ 0F44h ;# 
   141  0000                     # 945 "/opt/microchip/xc8/v2.00/pic/include/pic18f45k22.h"
   142                           CTMUCON1 equ 0F44h ;# 
   143  0000                     # 1094 "/opt/microchip/xc8/v2.00/pic/include/pic18f45k22.h"
   144                           CTMUCONH equ 0F45h ;# 
   145  0000                     # 1099 "/opt/microchip/xc8/v2.00/pic/include/pic18f45k22.h"
   146                           CTMUCON0 equ 0F45h ;# 
   147  0000                     # 1206 "/opt/microchip/xc8/v2.00/pic/include/pic18f45k22.h"
   148                           SRCON1 equ 0F46h ;# 
   149  0000                     # 1268 "/opt/microchip/xc8/v2.00/pic/include/pic18f45k22.h"
   150                           SRCON0 equ 0F47h ;# 
   151  0000                     # 1339 "/opt/microchip/xc8/v2.00/pic/include/pic18f45k22.h"
   152                           CCPTMRS1 equ 0F48h ;# 
   153  0000                     # 1391 "/opt/microchip/xc8/v2.00/pic/include/pic18f45k22.h"
   154                           CCPTMRS0 equ 0F49h ;# 
   155  0000                     # 1465 "/opt/microchip/xc8/v2.00/pic/include/pic18f45k22.h"
   156                           T6CON equ 0F4Ah ;# 
   157  0000                     # 1536 "/opt/microchip/xc8/v2.00/pic/include/pic18f45k22.h"
   158                           PR6 equ 0F4Bh ;# 
   159  0000                     # 1556 "/opt/microchip/xc8/v2.00/pic/include/pic18f45k22.h"
   160                           TMR6 equ 0F4Ch ;# 
   161  0000                     # 1576 "/opt/microchip/xc8/v2.00/pic/include/pic18f45k22.h"
   162                           T5GCON equ 0F4Dh ;# 
   163  0000                     # 1671 "/opt/microchip/xc8/v2.00/pic/include/pic18f45k22.h"
   164                           T5CON equ 0F4Eh ;# 
   165  0000                     # 1780 "/opt/microchip/xc8/v2.00/pic/include/pic18f45k22.h"
   166                           TMR5 equ 0F4Fh ;# 
   167  0000                     # 1787 "/opt/microchip/xc8/v2.00/pic/include/pic18f45k22.h"
   168                           TMR5L equ 0F4Fh ;# 
   169  0000                     # 1807 "/opt/microchip/xc8/v2.00/pic/include/pic18f45k22.h"
   170                           TMR5H equ 0F50h ;# 
   171  0000                     # 1827 "/opt/microchip/xc8/v2.00/pic/include/pic18f45k22.h"
   172                           T4CON equ 0F51h ;# 
   173  0000                     # 1898 "/opt/microchip/xc8/v2.00/pic/include/pic18f45k22.h"
   174                           PR4 equ 0F52h ;# 
   175  0000                     # 1918 "/opt/microchip/xc8/v2.00/pic/include/pic18f45k22.h"
   176                           TMR4 equ 0F53h ;# 
   177  0000                     # 1938 "/opt/microchip/xc8/v2.00/pic/include/pic18f45k22.h"
   178                           CCP5CON equ 0F54h ;# 
   179  0000                     # 2002 "/opt/microchip/xc8/v2.00/pic/include/pic18f45k22.h"
   180                           CCPR5 equ 0F55h ;# 
   181  0000                     # 2009 "/opt/microchip/xc8/v2.00/pic/include/pic18f45k22.h"
   182                           CCPR5L equ 0F55h ;# 
   183  0000                     # 2029 "/opt/microchip/xc8/v2.00/pic/include/pic18f45k22.h"
   184                           CCPR5H equ 0F56h ;# 
   185  0000                     # 2049 "/opt/microchip/xc8/v2.00/pic/include/pic18f45k22.h"
   186                           CCP4CON equ 0F57h ;# 
   187  0000                     # 2113 "/opt/microchip/xc8/v2.00/pic/include/pic18f45k22.h"
   188                           CCPR4 equ 0F58h ;# 
   189  0000                     # 2120 "/opt/microchip/xc8/v2.00/pic/include/pic18f45k22.h"
   190                           CCPR4L equ 0F58h ;# 
   191  0000                     # 2140 "/opt/microchip/xc8/v2.00/pic/include/pic18f45k22.h"
   192                           CCPR4H equ 0F59h ;# 
   193  0000                     # 2160 "/opt/microchip/xc8/v2.00/pic/include/pic18f45k22.h"
   194                           PSTR3CON equ 0F5Ah ;# 
   195  0000                     # 2236 "/opt/microchip/xc8/v2.00/pic/include/pic18f45k22.h"
   196                           ECCP3AS equ 0F5Bh ;# 
   197  0000                     # 2241 "/opt/microchip/xc8/v2.00/pic/include/pic18f45k22.h"
   198                           CCP3AS equ 0F5Bh ;# 
   199  0000                     # 2478 "/opt/microchip/xc8/v2.00/pic/include/pic18f45k22.h"
   200                           PWM3CON equ 0F5Ch ;# 
   201  0000                     # 2548 "/opt/microchip/xc8/v2.00/pic/include/pic18f45k22.h"
   202                           CCP3CON equ 0F5Dh ;# 
   203  0000                     # 2630 "/opt/microchip/xc8/v2.00/pic/include/pic18f45k22.h"
   204                           CCPR3 equ 0F5Eh ;# 
   205  0000                     # 2637 "/opt/microchip/xc8/v2.00/pic/include/pic18f45k22.h"
   206                           CCPR3L equ 0F5Eh ;# 
   207  0000                     # 2657 "/opt/microchip/xc8/v2.00/pic/include/pic18f45k22.h"
   208                           CCPR3H equ 0F5Fh ;# 
   209  0000                     # 2677 "/opt/microchip/xc8/v2.00/pic/include/pic18f45k22.h"
   210                           SLRCON equ 0F60h ;# 
   211  0000                     # 2721 "/opt/microchip/xc8/v2.00/pic/include/pic18f45k22.h"
   212                           WPUB equ 0F61h ;# 
   213  0000                     # 2783 "/opt/microchip/xc8/v2.00/pic/include/pic18f45k22.h"
   214                           IOCB equ 0F62h ;# 
   215  0000                     # 2822 "/opt/microchip/xc8/v2.00/pic/include/pic18f45k22.h"
   216                           PSTR2CON equ 0F63h ;# 
   217  0000                     # 2962 "/opt/microchip/xc8/v2.00/pic/include/pic18f45k22.h"
   218                           ECCP2AS equ 0F64h ;# 
   219  0000                     # 2967 "/opt/microchip/xc8/v2.00/pic/include/pic18f45k22.h"
   220                           CCP2AS equ 0F64h ;# 
   221  0000                     # 3204 "/opt/microchip/xc8/v2.00/pic/include/pic18f45k22.h"
   222                           PWM2CON equ 0F65h ;# 
   223  0000                     # 3274 "/opt/microchip/xc8/v2.00/pic/include/pic18f45k22.h"
   224                           CCP2CON equ 0F66h ;# 
   225  0000                     # 3356 "/opt/microchip/xc8/v2.00/pic/include/pic18f45k22.h"
   226                           CCPR2 equ 0F67h ;# 
   227  0000                     # 3363 "/opt/microchip/xc8/v2.00/pic/include/pic18f45k22.h"
   228                           CCPR2L equ 0F67h ;# 
   229  0000                     # 3383 "/opt/microchip/xc8/v2.00/pic/include/pic18f45k22.h"
   230                           CCPR2H equ 0F68h ;# 
   231  0000                     # 3403 "/opt/microchip/xc8/v2.00/pic/include/pic18f45k22.h"
   232                           SSP2CON3 equ 0F69h ;# 
   233  0000                     # 3465 "/opt/microchip/xc8/v2.00/pic/include/pic18f45k22.h"
   234                           SSP2MSK equ 0F6Ah ;# 
   235  0000                     # 3535 "/opt/microchip/xc8/v2.00/pic/include/pic18f45k22.h"
   236                           SSP2CON2 equ 0F6Bh ;# 
   237  0000                     # 3680 "/opt/microchip/xc8/v2.00/pic/include/pic18f45k22.h"
   238                           SSP2CON1 equ 0F6Ch ;# 
   239  0000                     # 3800 "/opt/microchip/xc8/v2.00/pic/include/pic18f45k22.h"
   240                           SSP2STAT equ 0F6Dh ;# 
   241  0000                     # 4200 "/opt/microchip/xc8/v2.00/pic/include/pic18f45k22.h"
   242                           SSP2ADD equ 0F6Eh ;# 
   243  0000                     # 4270 "/opt/microchip/xc8/v2.00/pic/include/pic18f45k22.h"
   244                           SSP2BUF equ 0F6Fh ;# 
   245  0000                     # 4290 "/opt/microchip/xc8/v2.00/pic/include/pic18f45k22.h"
   246                           BAUDCON2 equ 0F70h ;# 
   247  0000                     # 4295 "/opt/microchip/xc8/v2.00/pic/include/pic18f45k22.h"
   248                           BAUD2CON equ 0F70h ;# 
   249  0000                     # 4552 "/opt/microchip/xc8/v2.00/pic/include/pic18f45k22.h"
   250                           RCSTA2 equ 0F71h ;# 
   251  0000                     # 4557 "/opt/microchip/xc8/v2.00/pic/include/pic18f45k22.h"
   252                           RC2STA equ 0F71h ;# 
   253  0000                     # 4840 "/opt/microchip/xc8/v2.00/pic/include/pic18f45k22.h"
   254                           TXSTA2 equ 0F72h ;# 
   255  0000                     # 4845 "/opt/microchip/xc8/v2.00/pic/include/pic18f45k22.h"
   256                           TX2STA equ 0F72h ;# 
   257  0000                     # 5092 "/opt/microchip/xc8/v2.00/pic/include/pic18f45k22.h"
   258                           TXREG2 equ 0F73h ;# 
   259  0000                     # 5097 "/opt/microchip/xc8/v2.00/pic/include/pic18f45k22.h"
   260                           TX2REG equ 0F73h ;# 
   261  0000                     # 5130 "/opt/microchip/xc8/v2.00/pic/include/pic18f45k22.h"
   262                           RCREG2 equ 0F74h ;# 
   263  0000                     # 5135 "/opt/microchip/xc8/v2.00/pic/include/pic18f45k22.h"
   264                           RC2REG equ 0F74h ;# 
   265  0000                     # 5168 "/opt/microchip/xc8/v2.00/pic/include/pic18f45k22.h"
   266                           SPBRG2 equ 0F75h ;# 
   267  0000                     # 5173 "/opt/microchip/xc8/v2.00/pic/include/pic18f45k22.h"
   268                           SP2BRG equ 0F75h ;# 
   269  0000                     # 5206 "/opt/microchip/xc8/v2.00/pic/include/pic18f45k22.h"
   270                           SPBRGH2 equ 0F76h ;# 
   271  0000                     # 5211 "/opt/microchip/xc8/v2.00/pic/include/pic18f45k22.h"
   272                           SP2BRGH equ 0F76h ;# 
   273  0000                     # 5244 "/opt/microchip/xc8/v2.00/pic/include/pic18f45k22.h"
   274                           CM2CON1 equ 0F77h ;# 
   275  0000                     # 5249 "/opt/microchip/xc8/v2.00/pic/include/pic18f45k22.h"
   276                           CM12CON equ 0F77h ;# 
   277  0000                     # 5366 "/opt/microchip/xc8/v2.00/pic/include/pic18f45k22.h"
   278                           CM2CON0 equ 0F78h ;# 
   279  0000                     # 5371 "/opt/microchip/xc8/v2.00/pic/include/pic18f45k22.h"
   280                           CM2CON equ 0F78h ;# 
   281  0000                     # 5646 "/opt/microchip/xc8/v2.00/pic/include/pic18f45k22.h"
   282                           CM1CON0 equ 0F79h ;# 
   283  0000                     # 5651 "/opt/microchip/xc8/v2.00/pic/include/pic18f45k22.h"
   284                           CM1CON equ 0F79h ;# 
   285  0000                     # 6068 "/opt/microchip/xc8/v2.00/pic/include/pic18f45k22.h"
   286                           PIE4 equ 0F7Ah ;# 
   287  0000                     # 6100 "/opt/microchip/xc8/v2.00/pic/include/pic18f45k22.h"
   288                           PIR4 equ 0F7Bh ;# 
   289  0000                     # 6132 "/opt/microchip/xc8/v2.00/pic/include/pic18f45k22.h"
   290                           IPR4 equ 0F7Ch ;# 
   291  0000                     # 6172 "/opt/microchip/xc8/v2.00/pic/include/pic18f45k22.h"
   292                           PIE5 equ 0F7Dh ;# 
   293  0000                     # 6204 "/opt/microchip/xc8/v2.00/pic/include/pic18f45k22.h"
   294                           PIR5 equ 0F7Eh ;# 
   295  0000                     # 6236 "/opt/microchip/xc8/v2.00/pic/include/pic18f45k22.h"
   296                           IPR5 equ 0F7Fh ;# 
   297  0000                     # 6282 "/opt/microchip/xc8/v2.00/pic/include/pic18f45k22.h"
   298                           PORTA equ 0F80h ;# 
   299  0000                     # 6567 "/opt/microchip/xc8/v2.00/pic/include/pic18f45k22.h"
   300                           PORTB equ 0F81h ;# 
   301  0000                     # 6837 "/opt/microchip/xc8/v2.00/pic/include/pic18f45k22.h"
   302                           PORTC equ 0F82h ;# 
   303  0000                     # 7144 "/opt/microchip/xc8/v2.00/pic/include/pic18f45k22.h"
   304                           PORTD equ 0F83h ;# 
   305  0000                     # 7387 "/opt/microchip/xc8/v2.00/pic/include/pic18f45k22.h"
   306                           PORTE equ 0F84h ;# 
   307  0000                     # 7562 "/opt/microchip/xc8/v2.00/pic/include/pic18f45k22.h"
   308                           LATA equ 0F89h ;# 
   309  0000                     # 7674 "/opt/microchip/xc8/v2.00/pic/include/pic18f45k22.h"
   310                           LATB equ 0F8Ah ;# 
   311  0000                     # 7786 "/opt/microchip/xc8/v2.00/pic/include/pic18f45k22.h"
   312                           LATC equ 0F8Bh ;# 
   313  0000                     # 7898 "/opt/microchip/xc8/v2.00/pic/include/pic18f45k22.h"
   314                           LATD equ 0F8Ch ;# 
   315  0000                     # 8010 "/opt/microchip/xc8/v2.00/pic/include/pic18f45k22.h"
   316                           LATE equ 0F8Dh ;# 
   317  0000                     # 8062 "/opt/microchip/xc8/v2.00/pic/include/pic18f45k22.h"
   318                           TRISA equ 0F92h ;# 
   319  0000                     # 8067 "/opt/microchip/xc8/v2.00/pic/include/pic18f45k22.h"
   320                           DDRA equ 0F92h ;# 
   321  0000                     # 8284 "/opt/microchip/xc8/v2.00/pic/include/pic18f45k22.h"
   322                           TRISB equ 0F93h ;# 
   323  0000                     # 8289 "/opt/microchip/xc8/v2.00/pic/include/pic18f45k22.h"
   324                           DDRB equ 0F93h ;# 
   325  0000                     # 8506 "/opt/microchip/xc8/v2.00/pic/include/pic18f45k22.h"
   326                           TRISC equ 0F94h ;# 
   327  0000                     # 8511 "/opt/microchip/xc8/v2.00/pic/include/pic18f45k22.h"
   328                           DDRC equ 0F94h ;# 
   329  0000                     # 8728 "/opt/microchip/xc8/v2.00/pic/include/pic18f45k22.h"
   330                           TRISD equ 0F95h ;# 
   331  0000                     # 8733 "/opt/microchip/xc8/v2.00/pic/include/pic18f45k22.h"
   332                           DDRD equ 0F95h ;# 
   333  0000                     # 8950 "/opt/microchip/xc8/v2.00/pic/include/pic18f45k22.h"
   334                           TRISE equ 0F96h ;# 
   335  0000                     # 8955 "/opt/microchip/xc8/v2.00/pic/include/pic18f45k22.h"
   336                           DDRE equ 0F96h ;# 
   337  0000                     # 9066 "/opt/microchip/xc8/v2.00/pic/include/pic18f45k22.h"
   338                           OSCTUNE equ 0F9Bh ;# 
   339  0000                     # 9136 "/opt/microchip/xc8/v2.00/pic/include/pic18f45k22.h"
   340                           HLVDCON equ 0F9Ch ;# 
   341  0000                     # 9141 "/opt/microchip/xc8/v2.00/pic/include/pic18f45k22.h"
   342                           LVDCON equ 0F9Ch ;# 
   343  0000                     # 9416 "/opt/microchip/xc8/v2.00/pic/include/pic18f45k22.h"
   344                           PIE1 equ 0F9Dh ;# 
   345  0000                     # 9493 "/opt/microchip/xc8/v2.00/pic/include/pic18f45k22.h"
   346                           PIR1 equ 0F9Eh ;# 
   347  0000                     # 9570 "/opt/microchip/xc8/v2.00/pic/include/pic18f45k22.h"
   348                           IPR1 equ 0F9Fh ;# 
   349  0000                     # 9647 "/opt/microchip/xc8/v2.00/pic/include/pic18f45k22.h"
   350                           PIE2 equ 0FA0h ;# 
   351  0000                     # 9733 "/opt/microchip/xc8/v2.00/pic/include/pic18f45k22.h"
   352                           PIR2 equ 0FA1h ;# 
   353  0000                     # 9819 "/opt/microchip/xc8/v2.00/pic/include/pic18f45k22.h"
   354                           IPR2 equ 0FA2h ;# 
   355  0000                     # 9905 "/opt/microchip/xc8/v2.00/pic/include/pic18f45k22.h"
   356                           PIE3 equ 0FA3h ;# 
   357  0000                     # 10015 "/opt/microchip/xc8/v2.00/pic/include/pic18f45k22.h"
   358                           PIR3 equ 0FA4h ;# 
   359  0000                     # 10093 "/opt/microchip/xc8/v2.00/pic/include/pic18f45k22.h"
   360                           IPR3 equ 0FA5h ;# 
   361  0000                     # 10171 "/opt/microchip/xc8/v2.00/pic/include/pic18f45k22.h"
   362                           EECON1 equ 0FA6h ;# 
   363  0000                     # 10237 "/opt/microchip/xc8/v2.00/pic/include/pic18f45k22.h"
   364                           EECON2 equ 0FA7h ;# 
   365  0000                     # 10257 "/opt/microchip/xc8/v2.00/pic/include/pic18f45k22.h"
   366                           EEDATA equ 0FA8h ;# 
   367  0000                     # 10277 "/opt/microchip/xc8/v2.00/pic/include/pic18f45k22.h"
   368                           EEADR equ 0FA9h ;# 
   369  0000                     # 10347 "/opt/microchip/xc8/v2.00/pic/include/pic18f45k22.h"
   370                           RCSTA1 equ 0FABh ;# 
   371  0000                     # 10352 "/opt/microchip/xc8/v2.00/pic/include/pic18f45k22.h"
   372                           RCSTA equ 0FABh ;# 
   373  0000                     # 10356 "/opt/microchip/xc8/v2.00/pic/include/pic18f45k22.h"
   374                           RC1STA equ 0FABh ;# 
   375  0000                     # 10803 "/opt/microchip/xc8/v2.00/pic/include/pic18f45k22.h"
   376                           TXSTA1 equ 0FACh ;# 
   377  0000                     # 10808 "/opt/microchip/xc8/v2.00/pic/include/pic18f45k22.h"
   378                           TXSTA equ 0FACh ;# 
   379  0000                     # 10812 "/opt/microchip/xc8/v2.00/pic/include/pic18f45k22.h"
   380                           TX1STA equ 0FACh ;# 
   381  0000                     # 11178 "/opt/microchip/xc8/v2.00/pic/include/pic18f45k22.h"
   382                           TXREG1 equ 0FADh ;# 
   383  0000                     # 11183 "/opt/microchip/xc8/v2.00/pic/include/pic18f45k22.h"
   384                           TXREG equ 0FADh ;# 
   385  0000                     # 11187 "/opt/microchip/xc8/v2.00/pic/include/pic18f45k22.h"
   386                           TX1REG equ 0FADh ;# 
   387  0000                     # 11256 "/opt/microchip/xc8/v2.00/pic/include/pic18f45k22.h"
   388                           RCREG1 equ 0FAEh ;# 
   389  0000                     # 11261 "/opt/microchip/xc8/v2.00/pic/include/pic18f45k22.h"
   390                           RCREG equ 0FAEh ;# 
   391  0000                     # 11265 "/opt/microchip/xc8/v2.00/pic/include/pic18f45k22.h"
   392                           RC1REG equ 0FAEh ;# 
   393  0000                     # 11334 "/opt/microchip/xc8/v2.00/pic/include/pic18f45k22.h"
   394                           SPBRG1 equ 0FAFh ;# 
   395  0000                     # 11339 "/opt/microchip/xc8/v2.00/pic/include/pic18f45k22.h"
   396                           SPBRG equ 0FAFh ;# 
   397  0000                     # 11343 "/opt/microchip/xc8/v2.00/pic/include/pic18f45k22.h"
   398                           SP1BRG equ 0FAFh ;# 
   399  0000                     # 11412 "/opt/microchip/xc8/v2.00/pic/include/pic18f45k22.h"
   400                           SPBRGH1 equ 0FB0h ;# 
   401  0000                     # 11417 "/opt/microchip/xc8/v2.00/pic/include/pic18f45k22.h"
   402                           SPBRGH equ 0FB0h ;# 
   403  0000                     # 11421 "/opt/microchip/xc8/v2.00/pic/include/pic18f45k22.h"
   404                           SP1BRGH equ 0FB0h ;# 
   405  0000                     # 11490 "/opt/microchip/xc8/v2.00/pic/include/pic18f45k22.h"
   406                           T3CON equ 0FB1h ;# 
   407  0000                     # 11598 "/opt/microchip/xc8/v2.00/pic/include/pic18f45k22.h"
   408                           TMR3 equ 0FB2h ;# 
   409  0000                     # 11605 "/opt/microchip/xc8/v2.00/pic/include/pic18f45k22.h"
   410                           TMR3L equ 0FB2h ;# 
   411  0000                     # 11625 "/opt/microchip/xc8/v2.00/pic/include/pic18f45k22.h"
   412                           TMR3H equ 0FB3h ;# 
   413  0000                     # 11645 "/opt/microchip/xc8/v2.00/pic/include/pic18f45k22.h"
   414                           T3GCON equ 0FB4h ;# 
   415  0000                     # 11740 "/opt/microchip/xc8/v2.00/pic/include/pic18f45k22.h"
   416                           ECCP1AS equ 0FB6h ;# 
   417  0000                     # 11745 "/opt/microchip/xc8/v2.00/pic/include/pic18f45k22.h"
   418                           ECCPAS equ 0FB6h ;# 
   419  0000                     # 12122 "/opt/microchip/xc8/v2.00/pic/include/pic18f45k22.h"
   420                           PWM1CON equ 0FB7h ;# 
   421  0000                     # 12127 "/opt/microchip/xc8/v2.00/pic/include/pic18f45k22.h"
   422                           PWMCON equ 0FB7h ;# 
   423  0000                     # 12376 "/opt/microchip/xc8/v2.00/pic/include/pic18f45k22.h"
   424                           BAUDCON1 equ 0FB8h ;# 
   425  0000                     # 12381 "/opt/microchip/xc8/v2.00/pic/include/pic18f45k22.h"
   426                           BAUDCON equ 0FB8h ;# 
   427  0000                     # 12385 "/opt/microchip/xc8/v2.00/pic/include/pic18f45k22.h"
   428                           BAUDCTL equ 0FB8h ;# 
   429  0000                     # 12389 "/opt/microchip/xc8/v2.00/pic/include/pic18f45k22.h"
   430                           BAUD1CON equ 0FB8h ;# 
   431  0000                     # 13050 "/opt/microchip/xc8/v2.00/pic/include/pic18f45k22.h"
   432                           PSTR1CON equ 0FB9h ;# 
   433  0000                     # 13055 "/opt/microchip/xc8/v2.00/pic/include/pic18f45k22.h"
   434                           PSTRCON equ 0FB9h ;# 
   435  0000                     # 13200 "/opt/microchip/xc8/v2.00/pic/include/pic18f45k22.h"
   436                           T2CON equ 0FBAh ;# 
   437  0000                     # 13271 "/opt/microchip/xc8/v2.00/pic/include/pic18f45k22.h"
   438                           PR2 equ 0FBBh ;# 
   439  0000                     # 13291 "/opt/microchip/xc8/v2.00/pic/include/pic18f45k22.h"
   440                           TMR2 equ 0FBCh ;# 
   441  0000                     # 13311 "/opt/microchip/xc8/v2.00/pic/include/pic18f45k22.h"
   442                           CCP1CON equ 0FBDh ;# 
   443  0000                     # 13393 "/opt/microchip/xc8/v2.00/pic/include/pic18f45k22.h"
   444                           CCPR1 equ 0FBEh ;# 
   445  0000                     # 13400 "/opt/microchip/xc8/v2.00/pic/include/pic18f45k22.h"
   446                           CCPR1L equ 0FBEh ;# 
   447  0000                     # 13420 "/opt/microchip/xc8/v2.00/pic/include/pic18f45k22.h"
   448                           CCPR1H equ 0FBFh ;# 
   449  0000                     # 13440 "/opt/microchip/xc8/v2.00/pic/include/pic18f45k22.h"
   450                           ADCON2 equ 0FC0h ;# 
   451  0000                     # 13511 "/opt/microchip/xc8/v2.00/pic/include/pic18f45k22.h"
   452                           ADCON1 equ 0FC1h ;# 
   453  0000                     # 13579 "/opt/microchip/xc8/v2.00/pic/include/pic18f45k22.h"
   454                           ADCON0 equ 0FC2h ;# 
   455  0000                     # 13704 "/opt/microchip/xc8/v2.00/pic/include/pic18f45k22.h"
   456                           ADRES equ 0FC3h ;# 
   457  0000                     # 13711 "/opt/microchip/xc8/v2.00/pic/include/pic18f45k22.h"
   458                           ADRESL equ 0FC3h ;# 
   459  0000                     # 13731 "/opt/microchip/xc8/v2.00/pic/include/pic18f45k22.h"
   460                           ADRESH equ 0FC4h ;# 
   461  0000                     # 13751 "/opt/microchip/xc8/v2.00/pic/include/pic18f45k22.h"
   462                           SSP1CON2 equ 0FC5h ;# 
   463  0000                     # 13756 "/opt/microchip/xc8/v2.00/pic/include/pic18f45k22.h"
   464                           SSPCON2 equ 0FC5h ;# 
   465  0000                     # 14105 "/opt/microchip/xc8/v2.00/pic/include/pic18f45k22.h"
   466                           SSP1CON1 equ 0FC6h ;# 
   467  0000                     # 14110 "/opt/microchip/xc8/v2.00/pic/include/pic18f45k22.h"
   468                           SSPCON1 equ 0FC6h ;# 
   469  0000                     # 14343 "/opt/microchip/xc8/v2.00/pic/include/pic18f45k22.h"
   470                           SSP1STAT equ 0FC7h ;# 
   471  0000                     # 14348 "/opt/microchip/xc8/v2.00/pic/include/pic18f45k22.h"
   472                           SSPSTAT equ 0FC7h ;# 
   473  0000                     # 14973 "/opt/microchip/xc8/v2.00/pic/include/pic18f45k22.h"
   474                           SSP1ADD equ 0FC8h ;# 
   475  0000                     # 14978 "/opt/microchip/xc8/v2.00/pic/include/pic18f45k22.h"
   476                           SSPADD equ 0FC8h ;# 
   477  0000                     # 15227 "/opt/microchip/xc8/v2.00/pic/include/pic18f45k22.h"
   478                           SSP1BUF equ 0FC9h ;# 
   479  0000                     # 15232 "/opt/microchip/xc8/v2.00/pic/include/pic18f45k22.h"
   480                           SSPBUF equ 0FC9h ;# 
   481  0000                     # 15281 "/opt/microchip/xc8/v2.00/pic/include/pic18f45k22.h"
   482                           SSP1MSK equ 0FCAh ;# 
   483  0000                     # 15286 "/opt/microchip/xc8/v2.00/pic/include/pic18f45k22.h"
   484                           SSPMSK equ 0FCAh ;# 
   485  0000                     # 15419 "/opt/microchip/xc8/v2.00/pic/include/pic18f45k22.h"
   486                           SSP1CON3 equ 0FCBh ;# 
   487  0000                     # 15424 "/opt/microchip/xc8/v2.00/pic/include/pic18f45k22.h"
   488                           SSPCON3 equ 0FCBh ;# 
   489  0000                     # 15541 "/opt/microchip/xc8/v2.00/pic/include/pic18f45k22.h"
   490                           T1GCON equ 0FCCh ;# 
   491  0000                     # 15636 "/opt/microchip/xc8/v2.00/pic/include/pic18f45k22.h"
   492                           T1CON equ 0FCDh ;# 
   493  0000                     # 15749 "/opt/microchip/xc8/v2.00/pic/include/pic18f45k22.h"
   494                           TMR1 equ 0FCEh ;# 
   495  0000                     # 15756 "/opt/microchip/xc8/v2.00/pic/include/pic18f45k22.h"
   496                           TMR1L equ 0FCEh ;# 
   497  0000                     # 15776 "/opt/microchip/xc8/v2.00/pic/include/pic18f45k22.h"
   498                           TMR1H equ 0FCFh ;# 
   499  0000                     # 15796 "/opt/microchip/xc8/v2.00/pic/include/pic18f45k22.h"
   500                           RCON equ 0FD0h ;# 
   501  0000                     # 15929 "/opt/microchip/xc8/v2.00/pic/include/pic18f45k22.h"
   502                           WDTCON equ 0FD1h ;# 
   503  0000                     # 15957 "/opt/microchip/xc8/v2.00/pic/include/pic18f45k22.h"
   504                           OSCCON2 equ 0FD2h ;# 
   505  0000                     # 16014 "/opt/microchip/xc8/v2.00/pic/include/pic18f45k22.h"
   506                           OSCCON equ 0FD3h ;# 
   507  0000                     # 16097 "/opt/microchip/xc8/v2.00/pic/include/pic18f45k22.h"
   508                           T0CON equ 0FD5h ;# 
   509  0000                     # 16167 "/opt/microchip/xc8/v2.00/pic/include/pic18f45k22.h"
   510                           TMR0 equ 0FD6h ;# 
   511  0000                     # 16174 "/opt/microchip/xc8/v2.00/pic/include/pic18f45k22.h"
   512                           TMR0L equ 0FD6h ;# 
   513  0000                     # 16194 "/opt/microchip/xc8/v2.00/pic/include/pic18f45k22.h"
   514                           TMR0H equ 0FD7h ;# 
   515  0000                     # 16214 "/opt/microchip/xc8/v2.00/pic/include/pic18f45k22.h"
   516                           STATUS equ 0FD8h ;# 
   517  0000                     # 16285 "/opt/microchip/xc8/v2.00/pic/include/pic18f45k22.h"
   518                           FSR2 equ 0FD9h ;# 
   519  0000                     # 16292 "/opt/microchip/xc8/v2.00/pic/include/pic18f45k22.h"
   520                           FSR2L equ 0FD9h ;# 
   521  0000                     # 16312 "/opt/microchip/xc8/v2.00/pic/include/pic18f45k22.h"
   522                           FSR2H equ 0FDAh ;# 
   523  0000                     # 16319 "/opt/microchip/xc8/v2.00/pic/include/pic18f45k22.h"
   524                           PLUSW2 equ 0FDBh ;# 
   525  0000                     # 16339 "/opt/microchip/xc8/v2.00/pic/include/pic18f45k22.h"
   526                           PREINC2 equ 0FDCh ;# 
   527  0000                     # 16359 "/opt/microchip/xc8/v2.00/pic/include/pic18f45k22.h"
   528                           POSTDEC2 equ 0FDDh ;# 
   529  0000                     # 16379 "/opt/microchip/xc8/v2.00/pic/include/pic18f45k22.h"
   530                           POSTINC2 equ 0FDEh ;# 
   531  0000                     # 16399 "/opt/microchip/xc8/v2.00/pic/include/pic18f45k22.h"
   532                           INDF2 equ 0FDFh ;# 
   533  0000                     # 16419 "/opt/microchip/xc8/v2.00/pic/include/pic18f45k22.h"
   534                           BSR equ 0FE0h ;# 
   535  0000                     # 16426 "/opt/microchip/xc8/v2.00/pic/include/pic18f45k22.h"
   536                           FSR1 equ 0FE1h ;# 
   537  0000                     # 16433 "/opt/microchip/xc8/v2.00/pic/include/pic18f45k22.h"
   538                           FSR1L equ 0FE1h ;# 
   539  0000                     # 16453 "/opt/microchip/xc8/v2.00/pic/include/pic18f45k22.h"
   540                           FSR1H equ 0FE2h ;# 
   541  0000                     # 16460 "/opt/microchip/xc8/v2.00/pic/include/pic18f45k22.h"
   542                           PLUSW1 equ 0FE3h ;# 
   543  0000                     # 16480 "/opt/microchip/xc8/v2.00/pic/include/pic18f45k22.h"
   544                           PREINC1 equ 0FE4h ;# 
   545  0000                     # 16500 "/opt/microchip/xc8/v2.00/pic/include/pic18f45k22.h"
   546                           POSTDEC1 equ 0FE5h ;# 
   547  0000                     # 16520 "/opt/microchip/xc8/v2.00/pic/include/pic18f45k22.h"
   548                           POSTINC1 equ 0FE6h ;# 
   549  0000                     # 16540 "/opt/microchip/xc8/v2.00/pic/include/pic18f45k22.h"
   550                           INDF1 equ 0FE7h ;# 
   551  0000                     # 16560 "/opt/microchip/xc8/v2.00/pic/include/pic18f45k22.h"
   552                           WREG equ 0FE8h ;# 
   553  0000                     # 16598 "/opt/microchip/xc8/v2.00/pic/include/pic18f45k22.h"
   554                           FSR0 equ 0FE9h ;# 
   555  0000                     # 16605 "/opt/microchip/xc8/v2.00/pic/include/pic18f45k22.h"
   556                           FSR0L equ 0FE9h ;# 
   557  0000                     # 16625 "/opt/microchip/xc8/v2.00/pic/include/pic18f45k22.h"
   558                           FSR0H equ 0FEAh ;# 
   559  0000                     # 16632 "/opt/microchip/xc8/v2.00/pic/include/pic18f45k22.h"
   560                           PLUSW0 equ 0FEBh ;# 
   561  0000                     # 16652 "/opt/microchip/xc8/v2.00/pic/include/pic18f45k22.h"
   562                           PREINC0 equ 0FECh ;# 
   563  0000                     # 16672 "/opt/microchip/xc8/v2.00/pic/include/pic18f45k22.h"
   564                           POSTDEC0 equ 0FEDh ;# 
   565  0000                     # 16692 "/opt/microchip/xc8/v2.00/pic/include/pic18f45k22.h"
   566                           POSTINC0 equ 0FEEh ;# 
   567  0000                     # 16712 "/opt/microchip/xc8/v2.00/pic/include/pic18f45k22.h"
   568                           INDF0 equ 0FEFh ;# 
   569  0000                     # 16732 "/opt/microchip/xc8/v2.00/pic/include/pic18f45k22.h"
   570                           INTCON3 equ 0FF0h ;# 
   571  0000                     # 16824 "/opt/microchip/xc8/v2.00/pic/include/pic18f45k22.h"
   572                           INTCON2 equ 0FF1h ;# 
   573  0000                     # 16894 "/opt/microchip/xc8/v2.00/pic/include/pic18f45k22.h"
   574                           INTCON equ 0FF2h ;# 
   575  0000                     # 17011 "/opt/microchip/xc8/v2.00/pic/include/pic18f45k22.h"
   576                           PROD equ 0FF3h ;# 
   577  0000                     # 17018 "/opt/microchip/xc8/v2.00/pic/include/pic18f45k22.h"
   578                           PRODL equ 0FF3h ;# 
   579  0000                     # 17038 "/opt/microchip/xc8/v2.00/pic/include/pic18f45k22.h"
   580                           PRODH equ 0FF4h ;# 
   581  0000                     # 17058 "/opt/microchip/xc8/v2.00/pic/include/pic18f45k22.h"
   582                           TABLAT equ 0FF5h ;# 
   583  0000                     # 17080 "/opt/microchip/xc8/v2.00/pic/include/pic18f45k22.h"
   584                           TBLPTR equ 0FF6h ;# 
   585  0000                     # 17087 "/opt/microchip/xc8/v2.00/pic/include/pic18f45k22.h"
   586                           TBLPTRL equ 0FF6h ;# 
   587  0000                     # 17107 "/opt/microchip/xc8/v2.00/pic/include/pic18f45k22.h"
   588                           TBLPTRH equ 0FF7h ;# 
   589  0000                     # 17127 "/opt/microchip/xc8/v2.00/pic/include/pic18f45k22.h"
   590                           TBLPTRU equ 0FF8h ;# 
   591  0000                     # 17158 "/opt/microchip/xc8/v2.00/pic/include/pic18f45k22.h"
   592                           PCLAT equ 0FF9h ;# 
   593  0000                     # 17165 "/opt/microchip/xc8/v2.00/pic/include/pic18f45k22.h"
   594                           PC equ 0FF9h ;# 
   595  0000                     # 17172 "/opt/microchip/xc8/v2.00/pic/include/pic18f45k22.h"
   596                           PCL equ 0FF9h ;# 
   597  0000                     # 17192 "/opt/microchip/xc8/v2.00/pic/include/pic18f45k22.h"
   598                           PCLATH equ 0FFAh ;# 
   599  0000                     # 17212 "/opt/microchip/xc8/v2.00/pic/include/pic18f45k22.h"
   600                           PCLATU equ 0FFBh ;# 
   601  0000                     # 17219 "/opt/microchip/xc8/v2.00/pic/include/pic18f45k22.h"
   602                           STKPTR equ 0FFCh ;# 
   603  0000                     # 17325 "/opt/microchip/xc8/v2.00/pic/include/pic18f45k22.h"
   604                           TOS equ 0FFDh ;# 
   605  0000                     # 17332 "/opt/microchip/xc8/v2.00/pic/include/pic18f45k22.h"
   606                           TOSL equ 0FFDh ;# 
   607  0000                     # 17352 "/opt/microchip/xc8/v2.00/pic/include/pic18f45k22.h"
   608                           TOSH equ 0FFEh ;# 
   609  0000                     # 17372 "/opt/microchip/xc8/v2.00/pic/include/pic18f45k22.h"
   610                           TOSU equ 0FFFh ;# 
   611  0000                     	FNCALL	_main,_cardDetected
   612                           	FNCALL	_main,_road1
   613                           	FNCALL	_main,_road2
   614                           	FNCALL	_main,_road3
   615                           	FNCALL	_main,_road4
   616                           	FNCALL	_cardDetected,_road1
   617                           	FNCALL	_cardDetected,_road2
   618                           	FNCALL	_cardDetected,_road3
   619                           	FNCALL	_cardDetected,_road4
   620                           	FNROOT	_main
   621                           	global	_option
   622                           psect	idataCOMRAM,class=CODE,space=0,delta=1,noexec
   623                           global __pidataCOMRAM
   624                           __pidataCOMRAM:
   625  007376                     	file	"main.c"
   626                           	line	83
   627                           
   628                           ;initializer for _option
   629                           	dw	(01h)&0ffffh
   630  007376  0001               	global	_ANSELD
   631                           _ANSELD	set	0xF3B
   632  0000                     	global	_ANSELC
   633                           _ANSELC	set	0xF3A
   634  0000                     	global	_ANSELB
   635                           _ANSELB	set	0xF39
   636  0000                     	global	_ANSELA
   637                           _ANSELA	set	0xF38
   638  0000                     	global	_TRISC
   639                           _TRISC	set	0xF94
   640  0000                     	global	_TRISD
   641                           _TRISD	set	0xF95
   642  0000                     	global	_TRISB
   643                           _TRISB	set	0xF93
   644  0000                     	global	_TRISA
   645                           _TRISA	set	0xF92
   646  0000                     	global	_PORTC
   647                           _PORTC	set	0xF82
   648  0000                     	global	_PORTD
   649                           _PORTD	set	0xF83
   650  0000                     	global	_PORTA
   651                           _PORTA	set	0xF80
   652  0000                     	global	_PORTB
   653                           _PORTB	set	0xF81
   654  0000                     	global	_OSCTUNEbits
   655                           _OSCTUNEbits	set	0xF9B
   656  0000                     	global	_OSCCONbits
   657                           _OSCCONbits	set	0xFD3
   658  0000                     	global	_PORTCbits
   659                           _PORTCbits	set	0xF82
   660  0000                     	global	_PORTDbits
   661                           _PORTDbits	set	0xF83
   662  0000                     	global	_PORTBbits
   663                           _PORTBbits	set	0xF81
   664  0000                     	global	_PORTAbits
   665                           _PORTAbits	set	0xF80
   666  0000                     	global	_INTCONbits
   667                           _INTCONbits	set	0xFF2
   668  0000                     ; #config settings
   669                           global __CFG_FOSC$INTIO67
   670                           __CFG_FOSC$INTIO67 equ 0x0
   671  0000                     global __CFG_PLLCFG$OFF
   672                           __CFG_PLLCFG$OFF equ 0x0
   673  0000                     global __CFG_PRICLKEN$ON
   674                           __CFG_PRICLKEN$ON equ 0x0
   675  0000                     global __CFG_FCMEN$OFF
   676                           __CFG_FCMEN$OFF equ 0x0
   677  0000                     global __CFG_IESO$OFF
   678                           __CFG_IESO$OFF equ 0x0
   679  0000                     global __CFG_PWRTEN$OFF
   680                           __CFG_PWRTEN$OFF equ 0x0
   681  0000                     global __CFG_BOREN$SBORDIS
   682                           __CFG_BOREN$SBORDIS equ 0x0
   683  0000                     global __CFG_BORV$190
   684                           __CFG_BORV$190 equ 0x0
   685  0000                     global __CFG_WDTEN$OFF
   686                           __CFG_WDTEN$OFF equ 0x0
   687  0000                     global __CFG_WDTPS$32768
   688                           __CFG_WDTPS$32768 equ 0x0
   689  0000                     global __CFG_CCP2MX$PORTC1
   690                           __CFG_CCP2MX$PORTC1 equ 0x0
   691  0000                     global __CFG_PBADEN$OFF
   692                           __CFG_PBADEN$OFF equ 0x0
   693  0000                     global __CFG_CCP3MX$PORTB5
   694                           __CFG_CCP3MX$PORTB5 equ 0x0
   695  0000                     global __CFG_HFOFST$ON
   696                           __CFG_HFOFST$ON equ 0x0
   697  0000                     global __CFG_T3CMX$PORTC0
   698                           __CFG_T3CMX$PORTC0 equ 0x0
   699  0000                     global __CFG_P2BMX$PORTD2
   700                           __CFG_P2BMX$PORTD2 equ 0x0
   701  0000                     global __CFG_MCLRE$INTMCLR
   702                           __CFG_MCLRE$INTMCLR equ 0x0
   703  0000                     global __CFG_STVREN$ON
   704                           __CFG_STVREN$ON equ 0x0
   705  0000                     global __CFG_LVP$ON
   706                           __CFG_LVP$ON equ 0x0
   707  0000                     global __CFG_XINST$OFF
   708                           __CFG_XINST$OFF equ 0x0
   709  0000                     global __CFG_CP0$OFF
   710                           __CFG_CP0$OFF equ 0x0
   711  0000                     global __CFG_CP1$OFF
   712                           __CFG_CP1$OFF equ 0x0
   713  0000                     global __CFG_CP2$OFF
   714                           __CFG_CP2$OFF equ 0x0
   715  0000                     global __CFG_CP3$OFF
   716                           __CFG_CP3$OFF equ 0x0
   717  0000                     global __CFG_CPB$OFF
   718                           __CFG_CPB$OFF equ 0x0
   719  0000                     global __CFG_CPD$OFF
   720                           __CFG_CPD$OFF equ 0x0
   721  0000                     global __CFG_WRT0$OFF
   722                           __CFG_WRT0$OFF equ 0x0
   723  0000                     global __CFG_WRT1$OFF
   724                           __CFG_WRT1$OFF equ 0x0
   725  0000                     global __CFG_WRT2$OFF
   726                           __CFG_WRT2$OFF equ 0x0
   727  0000                     global __CFG_WRT3$OFF
   728                           __CFG_WRT3$OFF equ 0x0
   729  0000                     global __CFG_WRTC$OFF
   730                           __CFG_WRTC$OFF equ 0x0
   731  0000                     global __CFG_WRTB$OFF
   732                           __CFG_WRTB$OFF equ 0x0
   733  0000                     global __CFG_WRTD$OFF
   734                           __CFG_WRTD$OFF equ 0x0
   735  0000                     global __CFG_EBTR0$OFF
   736                           __CFG_EBTR0$OFF equ 0x0
   737  0000                     global __CFG_EBTR1$OFF
   738                           __CFG_EBTR1$OFF equ 0x0
   739  0000                     global __CFG_EBTR2$OFF
   740                           __CFG_EBTR2$OFF equ 0x0
   741  0000                     global __CFG_EBTR3$OFF
   742                           __CFG_EBTR3$OFF equ 0x0
   743  0000                     global __CFG_EBTRB$OFF
   744                           __CFG_EBTRB$OFF equ 0x0
   745  0000                     	file	"/tmp/xcXxxeGeh"
   746                           	line	#
   747                           psect	cinit,class=CODE,delta=1,reloc=2
   748                           global __pcinit
   749                           __pcinit:
   750  0073E0                     global start_initialization
   751                           start_initialization:
   752  0073E0                     
   753                           global __initialization
   754                           __initialization:
   755  0073E0                     psect	dataCOMRAM,class=COMRAM,space=1,noexec
   756                           global __pdataCOMRAM
   757                           __pdataCOMRAM:
   758  000015                     	file	"main.c"
   759                           	line	83
   760                           	global	_option
   761                           _option:
   762  000015                            ds      2
   763  000015                     	file	"/tmp/xcXxxeGeh"
   764                           	line	#
   765                           psect	cinit
   766                           ; Initialize objects allocated to COMRAM (2 bytes)
   767                           	global __pidataCOMRAM
   768                           	; load TBLPTR registers with __pidataCOMRAM
   769                           	movlw	low (__pidataCOMRAM)
   770  0073E0  0E76               	movwf	tblptrl
   771  0073E2  6EF6               	movlw	high(__pidataCOMRAM)
   772  0073E4  0E73               	movwf	tblptrh
   773  0073E6  6EF7               	movlw	low highword(__pidataCOMRAM)
   774  0073E8  0E00               	movwf	tblptru
   775  0073EA  6EF8               	tblrd*+ ;fetch initializer
   776  0073EC  0009               	movff	tablat, __pdataCOMRAM+0		
   777  0073EE  CFF5 F015          	tblrd*+ ;fetch initializer
   778  0073F2  0009               	movff	tablat, __pdataCOMRAM+1		
   779  0073F4  CFF5 F016          psect cinit,class=CODE,delta=1
   780                           global end_of_initialization,__end_of__initialization
   781                           
   782                           ;End of C runtime variable initialization code
   783                           
   784                           end_of_initialization:
   785  0073F8                     __end_of__initialization:
   786  0073F8                     	GLOBAL	__Lmediumconst
   787                           	movlw	low highword(__Lmediumconst)
   788  0073F8  0E00               	movwf	tblptru
   789  0073FA  6EF8               movlb 0
   790  0073FC  0100               goto _main	;jump to C main() function
   791  0073FE  EF01  F03A         psect	cstackCOMRAM,class=COMRAM,space=1,noexec
   792                           global __pcstackCOMRAM
   793                           __pcstackCOMRAM:
   794  000001                     ?_road1:	; 1 bytes @ 0x0
   795  000001                     ??_road1:	; 1 bytes @ 0x0
   796  000001                     ?_road2:	; 1 bytes @ 0x0
   797  000001                     ??_road2:	; 1 bytes @ 0x0
   798  000001                     ?_road3:	; 1 bytes @ 0x0
   799  000001                     ??_road3:	; 1 bytes @ 0x0
   800  000001                     ?_road4:	; 1 bytes @ 0x0
   801  000001                     ??_road4:	; 1 bytes @ 0x0
   802  000001                     ?_cardDetected:	; 1 bytes @ 0x0
   803  000001                     ??_cardDetected:	; 1 bytes @ 0x0
   804  000001                     ?_main:	; 1 bytes @ 0x0
   805  000001                     	ds   2
   806  000001                     ??_main:	; 1 bytes @ 0x2
   807  000003                     	ds   2
   808  000003                     	global	main@i
   809                           main@i:	; 2 bytes @ 0x4
   810  000005                     	ds   2
   811  000005                     	global	main@i_727
   812                           main@i_727:	; 2 bytes @ 0x6
   813  000007                     	ds   2
   814  000007                     	global	main@i_728
   815                           main@i_728:	; 2 bytes @ 0x8
   816  000009                     	ds   2
   817  000009                     	global	main@i_729
   818                           main@i_729:	; 2 bytes @ 0xA
   819  00000B                     	ds   2
   820  00000B                     	global	main@i_730
   821                           main@i_730:	; 2 bytes @ 0xC
   822  00000D                     	ds   2
   823  00000D                     	global	main@i_731
   824                           main@i_731:	; 2 bytes @ 0xE
   825  00000F                     	ds   2
   826  00000F                     	global	main@i_732
   827                           main@i_732:	; 2 bytes @ 0x10
   828  000011                     	ds   2
   829  000011                     	global	main@i_733
   830                           main@i_733:	; 2 bytes @ 0x12
   831  000013                     	ds   2
   832  000013                     ;!
   833                           ;!Data Sizes:
   834                           ;!    Strings     0
   835                           ;!    Constant    0
   836                           ;!    Data        2
   837                           ;!    BSS         0
   838                           ;!    Persistent  0
   839                           ;!    Stack       0
   840                           ;!
   841                           ;!Auto Spaces:
   842                           ;!    Space          Size  Autos    Used
   843                           ;!    COMRAM           95     20      22
   844                           ;!    BANK0           160      0       0
   845                           ;!    BANK1           256      0       0
   846                           ;!    BANK2           256      0       0
   847                           ;!    BANK3           256      0       0
   848                           ;!    BANK4           256      0       0
   849                           ;!    BANK5           256      0       0
   850                           
   851                           ;!
   852                           ;!Pointer List with Targets:
   853                           ;!
   854                           ;!    None.
   855                           
   856                           
   857                           ;!
   858                           ;!Critical Paths under _main in COMRAM
   859                           ;!
   860                           ;!    _main->_cardDetected
   861                           ;!
   862                           ;!Critical Paths under _main in BANK0
   863                           ;!
   864                           ;!    None.
   865                           ;!
   866                           ;!Critical Paths under _main in BANK1
   867                           ;!
   868                           ;!    None.
   869                           ;!
   870                           ;!Critical Paths under _main in BANK2
   871                           ;!
   872                           ;!    None.
   873                           ;!
   874                           ;!Critical Paths under _main in BANK3
   875                           ;!
   876                           ;!    None.
   877                           ;!
   878                           ;!Critical Paths under _main in BANK4
   879                           ;!
   880                           ;!    None.
   881                           ;!
   882                           ;!Critical Paths under _main in BANK5
   883                           ;!
   884                           ;!    None.
   885                           
   886 ;;
   887 ;;Main: autosize = 0, tempsize = 2, incstack = 0, save=0
   888 ;;
   889                           
   890                           ;!
   891                           ;!Call Graph Tables:
   892                           ;!
   893                           ;! ---------------------------------------------------------------------------------
   894                           ;! (Depth) Function   	        Calls       Base Space   Used Autos Params    Refs
   895                           ;! ---------------------------------------------------------------------------------
   896                           ;! (0) _main                                                18    18      0     240
   897                           ;!                                              2 COMRAM    18    18      0
   898                           ;!                       _cardDetected
   899                           ;!                              _road1
   900                           ;!                              _road2
   901                           ;!                              _road3
   902                           ;!                              _road4
   903                           ;! ---------------------------------------------------------------------------------
   904                           ;! (1) _cardDetected                                         2     2      0       0
   905                           ;!                                              0 COMRAM     2     2      0
   906                           ;!                              _road1
   907                           ;!                              _road2
   908                           ;!                              _road3
   909                           ;!                              _road4
   910                           ;! ---------------------------------------------------------------------------------
   911                           ;! (1) _road4                                                0     0      0       0
   912                           ;! ---------------------------------------------------------------------------------
   913                           ;! (1) _road3                                                0     0      0       0
   914                           ;! ---------------------------------------------------------------------------------
   915                           ;! (1) _road2                                                0     0      0       0
   916                           ;! ---------------------------------------------------------------------------------
   917                           ;! (1) _road1                                                0     0      0       0
   918                           ;! ---------------------------------------------------------------------------------
   919                           ;! Estimated maximum stack depth 1
   920                           ;! ---------------------------------------------------------------------------------
   921                           ;!
   922                           ;! Call Graph Graphs:
   923                           ;!
   924                           ;! _main (ROOT)
   925                           ;!   _cardDetected
   926                           ;!     _road1
   927                           ;!     _road2
   928                           ;!     _road3
   929                           ;!     _road4
   930                           ;!   _road1
   931                           ;!   _road2
   932                           ;!   _road3
   933                           ;!   _road4
   934                           ;!
   935                           
   936                           ;! Address spaces:
   937                           
   938                           ;!Name               Size   Autos  Total    Cost      Usage
   939                           ;!BIGRAM             5FF      0       0      16        0.0%
   940                           ;!EEDATA             100      0       0       0        0.0%
   941                           ;!BITBANK5           100      0       0      14        0.0%
   942                           ;!BANK5              100      0       0      15        0.0%
   943                           ;!BITBANK4           100      0       0      12        0.0%
   944                           ;!BANK4              100      0       0      13        0.0%
   945                           ;!BITBANK3           100      0       0      10        0.0%
   946                           ;!BANK3              100      0       0      11        0.0%
   947                           ;!BITBANK2           100      0       0       7        0.0%
   948                           ;!BANK2              100      0       0       8        0.0%
   949                           ;!BITBANK1           100      0       0       5        0.0%
   950                           ;!BANK1              100      0       0       6        0.0%
   951                           ;!BITBANK0            A0      0       0       3        0.0%
   952                           ;!BANK0               A0      0       0       4        0.0%
   953                           ;!BITCOMRAM           5F      0       0       0        0.0%
   954                           ;!COMRAM              5F     14      16       1       23.2%
   955                           ;!BITSFR_1             0      0       0     200        0.0%
   956                           ;!SFR_1                0      0       0     200        0.0%
   957                           ;!BITSFR               0      0       0     200        0.0%
   958                           ;!SFR                  0      0       0     200        0.0%
   959                           ;!STACK                0      0       0       2        0.0%
   960                           ;!NULL                 0      0       0       0        0.0%
   961                           ;!ABS                  0      0      16       9        0.0%
   962                           ;!DATA                 0      0      16      17        0.0%
   963                           ;!CODE                 0      0       0       0        0.0%
   964                           
   965                           	global	_main
   966                           
   967 ;; *************** function _main *****************
   968 ;; Defined at:
   969 ;;		line 270 in file "main.c"
   970 ;; Parameters:    Size  Location     Type
   971 ;;		None
   972 ;; Auto vars:     Size  Location     Type
   973 ;;  i               2   18[COMRAM] int 
   974 ;;  i               2   16[COMRAM] int 
   975 ;;  i               2   14[COMRAM] int 
   976 ;;  i               2   12[COMRAM] int 
   977 ;;  i               2   10[COMRAM] int 
   978 ;;  i               2    8[COMRAM] int 
   979 ;;  i               2    6[COMRAM] int 
   980 ;;  i               2    4[COMRAM] int 
   981 ;; Return value:  Size  Location     Type
   982 ;;                  1    wreg      void 
   983 ;; Registers used:
   984 ;;		wreg, status,2, status,0, cstack
   985 ;; Tracked objects:
   986 ;;		On entry : 0/0
   987 ;;		On exit  : 0/0
   988 ;;		Unchanged: 0/0
   989 ;; Data sizes:     COMRAM   BANK0   BANK1   BANK2   BANK3   BANK4   BANK5
   990 ;;      Params:         0       0       0       0       0       0       0
   991 ;;      Locals:        16       0       0       0       0       0       0
   992 ;;      Temps:          2       0       0       0       0       0       0
   993 ;;      Totals:        18       0       0       0       0       0       0
   994 ;;Total ram usage:       18 bytes
   995 ;; Hardware stack levels required when called:    2
   996 ;; This function calls:
   997 ;;		_cardDetected
   998 ;;		_road1
   999 ;;		_road2
  1000 ;;		_road3
  1001 ;;		_road4
  1002 ;; This function is called by:
  1003 ;;		Startup code after reset
  1004 ;; This function uses a non-reentrant model
  1005 ;;
  1006                           psect	text0,class=CODE,space=0,reloc=2,group=0
  1007                           	file	"main.c"
  1008                           	line	270
  1009                           global __ptext0
  1010                           __ptext0:
  1011  007402                     psect	text0
  1012                           	file	"main.c"
  1013                           	line	270
  1014                           	global	__size_of_main
  1015                           	__size_of_main	equ	__end_of_main-_main
  1016  0000                     	
  1017                           _main:
  1018  007402                     ;incstack = 0
  1019                           	opt	stack 29
  1020                           	line	271
  1021                           	
  1022                           l1034:
  1023  007402                     ;main.c: 271:     OSCCONbits.IRCF = 0b110;
  1024                           	movf	((c:4051)),c,w	;volatile
  1025  007402  50D3               	andlw	not (((1<<3)-1)<<4)
  1026  007404  0B8F               	iorlw	(06h & ((1<<3)-1))<<4
  1027  007406  0960               	movwf	((c:4051)),c	;volatile
  1028  007408  6ED3               	line	272
  1029                           	
  1030                           l1036:
  1031  00740A                     ;main.c: 272:     OSCTUNEbits.INTSRC = 1;
  1032                           	bsf	((c:3995)),c,7	;volatile
  1033  00740A  8E9B               	line	273
  1034                           	
  1035                           l1038:
  1036  00740C                     ;main.c: 273:     OSCTUNEbits.TUN = 0b011111;
  1037                           		
  1038                           	bsf	((c:3995)),c, 0+0	;volatile
  1039  00740C  809B               	bsf	((c:3995)),c, 0+1	;volatile
  1040  00740E  829B               	bsf	((c:3995)),c, 0+2	;volatile
  1041  007410  849B               	bsf	((c:3995)),c, 0+3	;volatile
  1042  007412  869B               	bsf	((c:3995)),c, 0+4	;volatile
  1043  007414  889B               	bcf	((c:3995)),c, 0+5	;volatile
  1044  007416  9A9B               
  1045                           	line	275
  1046                           	
  1047                           l1040:
  1048  007418                     ;main.c: 275:     OSCCONbits.IRCF = 0b111;
  1049                           		
  1050                           	bsf	((c:4051)),c, 4+0	;volatile
  1051  007418  88D3               	bsf	((c:4051)),c, 4+1	;volatile
  1052  00741A  8AD3               	bsf	((c:4051)),c, 4+2	;volatile
  1053  00741C  8CD3               
  1054                           	line	277
  1055                           	
  1056                           l1042:
  1057  00741E                     ;main.c: 277:     INTCONbits.GIE = 0;
  1058                           	bcf	((c:4082)),c,7	;volatile
  1059  00741E  9EF2               	line	278
  1060                           	
  1061                           l1044:
  1062  007420                     ;main.c: 278:     INTCONbits.INT0IE = 0;
  1063                           	bcf	((c:4082)),c,4	;volatile
  1064  007420  98F2               	line	280
  1065                           ;main.c: 280:     PORTB = 0;
  1066                           	movlw	low(0)
  1067  007422  0E00               	movwf	((c:3969)),c	;volatile
  1068  007424  6E81               	line	281
  1069                           ;main.c: 281:     PORTA = 0;
  1070                           	movlw	low(0)
  1071  007426  0E00               	movwf	((c:3968)),c	;volatile
  1072  007428  6E80               	line	282
  1073                           ;main.c: 282:     PORTD = 0;
  1074                           	movlw	low(0)
  1075  00742A  0E00               	movwf	((c:3971)),c	;volatile
  1076  00742C  6E83               	line	283
  1077                           ;main.c: 283:     PORTC = 0;
  1078                           	movlw	low(0)
  1079  00742E  0E00               	movwf	((c:3970)),c	;volatile
  1080  007430  6E82               	line	284
  1081                           ;main.c: 284:     TRISA = 0b00000011;
  1082                           	movlw	low(03h)
  1083  007432  0E03               	movwf	((c:3986)),c	;volatile
  1084  007434  6E92               	line	285
  1085                           ;main.c: 285:     TRISB = 0b00000001;
  1086                           	movlw	low(01h)
  1087  007436  0E01               	movwf	((c:3987)),c	;volatile
  1088  007438  6E93               	line	286
  1089                           ;main.c: 286:     TRISD = 0b00000000;
  1090                           	movlw	low(0)
  1091  00743A  0E00               	movwf	((c:3989)),c	;volatile
  1092  00743C  6E95               	line	287
  1093                           ;main.c: 287:     TRISC = 0b00000000;
  1094                           	movlw	low(0)
  1095  00743E  0E00               	movwf	((c:3988)),c	;volatile
  1096  007440  6E94               	line	288
  1097                           ;main.c: 288:     ANSELA = 0;
  1098                           	movlw	low(0)
  1099  007442  0E00               	movlb	15	; () banked
  1100  007444  010F               	movwf	((3896))&0ffh	;volatile
  1101  007446  6F38               	line	289
  1102                           ;main.c: 289:     ANSELB = 0;
  1103                           	movlw	low(0)
  1104  007448  0E00               	movwf	((3897))&0ffh	;volatile
  1105  00744A  6F39               	line	290
  1106                           ;main.c: 290:     ANSELC = 0;
  1107                           	movlw	low(0)
  1108  00744C  0E00               	movwf	((3898))&0ffh	;volatile
  1109  00744E  6F3A               	line	291
  1110                           ;main.c: 291:     ANSELD = 0;
  1111                           	movlw	low(0)
  1112  007450  0E00               	movwf	((3899))&0ffh	;volatile
  1113  007452  6F3B               	line	293
  1114                           ;main.c: 293:     while(1) {
  1115                           	
  1116                           l149:
  1117  007454                     	line	322
  1118                           ;main.c: 322:         option = 1;
  1119                           	movlw	high(01h)
  1120  007454  0E00               	movwf	((c:_option+1)),c
  1121  007456  6E16               	movlw	low(01h)
  1122  007458  0E01               	movwf	((c:_option)),c
  1123  00745A  6E15               	line	323
  1124                           	
  1125                           l1046:
  1126  00745C                     ;main.c: 323:         PORTBbits.RB6 = 1;
  1127                           	bsf	((c:3969)),c,6	;volatile
  1128  00745C  8C81               	line	324
  1129                           	
  1130                           l1048:
  1131  00745E                     ;main.c: 324:         PORTCbits.RC6 = 1;
  1132                           	bsf	((c:3970)),c,6	;volatile
  1133  00745E  8C82               	line	325
  1134                           ;main.c: 325:         for(int i = 0; i < 25; i++) {
  1135                           	movlw	high(0)
  1136  007460  0E00               	movwf	((c:main@i+1)),c
  1137  007462  6E06               	movlw	low(0)
  1138  007464  0E00               	movwf	((c:main@i)),c
  1139  007466  6E05               	
  1140                           l1050:
  1141  007468                     	btfsc	((c:main@i+1)),c,7
  1142  007468  BE06               	goto	u331
  1143  00746A  EF40  F03A         	movf	((c:main@i+1)),c,w
  1144  00746E  5006               	bnz	u330
  1145  007470  E109               	movlw	25
  1146  007472  0E19               	subwf	 ((c:main@i)),c,w
  1147  007474  5C05               	btfss	status,0
  1148  007476  A0D8               	goto	u331
  1149  007478  EF40  F03A         	goto	u330
  1150  00747C  EF42  F03A         
  1151                           u331:
  1152  007480                     	goto	l1054
  1153  007480  EF46  F03A         u330:
  1154  007484                     	goto	l1064
  1155  007484  EF6F  F03A         	
  1156                           l1052:
  1157  007488                     	goto	l1064
  1158  007488  EF6F  F03A         	
  1159                           l150:
  1160  00748C                     	line	326
  1161                           	
  1162                           l1054:
  1163  00748C                     ;main.c: 326:             _delay((unsigned long)((100)*(8000000/4000.0)));
  1164                           	opt asmopt_push
  1165                           opt asmopt_off
  1166                           movlw  2
  1167  00748C  0E02               movwf	(??_main+0+0+1)&0ffh,c,f
  1168  00748E  6E04               movlw	4
  1169  007490  0E04               movwf	(??_main+0+0)&0ffh,c,f
  1170  007492  6E03               	movlw	186
  1171  007494  0EBA               u577:
  1172  007496                     decfsz	wreg,f
  1173  007496  2EE8               	bra	u577
  1174  007498  D7FE               	decfsz	(??_main+0+0)&0ffh,c,f
  1175  00749A  2E03               	bra	u577
  1176  00749C  D7FC               	decfsz	(??_main+0+0+1)&0ffh,c,f
  1177  00749E  2E04               	bra	u577
  1178  0074A0  D7FA               	nop2
  1179  0074A2  D000               opt asmopt_pop
  1180                           
  1181                           	line	327
  1182                           	
  1183                           l1056:
  1184  0074A4                     ;main.c: 327:             if(PORTBbits.RB0 == 1) {
  1185                           	btfss	((c:3969)),c,0	;volatile
  1186  0074A4  A081               	goto	u341
  1187  0074A6  EF57  F03A         	goto	u340
  1188  0074AA  EF59  F03A         u341:
  1189  0074AE                     	goto	l1060
  1190  0074AE  EF5D  F03A         u340:
  1191  0074B2                     	line	328
  1192                           	
  1193                           l1058:
  1194  0074B2                     ;main.c: 328:                 cardDetected();
  1195                           	call	_cardDetected	;wreg free
  1196  0074B2  EC48  F03C         	goto	l1060
  1197  0074B6  EF5D  F03A         	line	329
  1198                           ;main.c: 329:             }
  1199                           	
  1200                           l152:
  1201  0074BA                     	line	330
  1202                           	
  1203                           l1060:
  1204  0074BA                     ;main.c: 330:         }
  1205                           	infsnz	((c:main@i)),c
  1206  0074BA  4A05               	incf	((c:main@i+1)),c
  1207  0074BC  2A06               	
  1208                           l1062:
  1209  0074BE                     	btfsc	((c:main@i+1)),c,7
  1210  0074BE  BE06               	goto	u351
  1211  0074C0  EF6B  F03A         	movf	((c:main@i+1)),c,w
  1212  0074C4  5006               	bnz	u350
  1213  0074C6  E109               	movlw	25
  1214  0074C8  0E19               	subwf	 ((c:main@i)),c,w
  1215  0074CA  5C05               	btfss	status,0
  1216  0074CC  A0D8               	goto	u351
  1217  0074CE  EF6B  F03A         	goto	u350
  1218  0074D2  EF6D  F03A         
  1219                           u351:
  1220  0074D6                     	goto	l1054
  1221  0074D6  EF46  F03A         u350:
  1222  0074DA                     	goto	l1064
  1223  0074DA  EF6F  F03A         	
  1224                           l151:
  1225  0074DE                     	line	331
  1226                           	
  1227                           l1064:
  1228  0074DE                     ;main.c: 331:         road1();
  1229                           	call	_road1	;wreg free
  1230  0074DE  ECBC  F039         	line	332
  1231                           	
  1232                           l1066:
  1233  0074E2                     ;main.c: 332:         for(int i = 0; i < 50; i++) {
  1234                           	movlw	high(0)
  1235  0074E2  0E00               	movwf	((c:main@i_727+1)),c
  1236  0074E4  6E08               	movlw	low(0)
  1237  0074E6  0E00               	movwf	((c:main@i_727)),c
  1238  0074E8  6E07               	
  1239                           l1068:
  1240  0074EA                     	btfsc	((c:main@i_727+1)),c,7
  1241  0074EA  BE08               	goto	u361
  1242  0074EC  EF81  F03A         	movf	((c:main@i_727+1)),c,w
  1243  0074F0  5008               	bnz	u360
  1244  0074F2  E109               	movlw	50
  1245  0074F4  0E32               	subwf	 ((c:main@i_727)),c,w
  1246  0074F6  5C07               	btfss	status,0
  1247  0074F8  A0D8               	goto	u361
  1248  0074FA  EF81  F03A         	goto	u360
  1249  0074FE  EF83  F03A         
  1250                           u361:
  1251  007502                     	goto	l1072
  1252  007502  EF87  F03A         u360:
  1253  007506                     	goto	l1082
  1254  007506  EFB0  F03A         	
  1255                           l1070:
  1256  00750A                     	goto	l1082
  1257  00750A  EFB0  F03A         	
  1258                           l153:
  1259  00750E                     	line	333
  1260                           	
  1261                           l1072:
  1262  00750E                     ;main.c: 333:             _delay((unsigned long)((100)*(8000000/4000.0)));
  1263                           	opt asmopt_push
  1264                           opt asmopt_off
  1265                           movlw  2
  1266  00750E  0E02               movwf	(??_main+0+0+1)&0ffh,c,f
  1267  007510  6E04               movlw	4
  1268  007512  0E04               movwf	(??_main+0+0)&0ffh,c,f
  1269  007514  6E03               	movlw	186
  1270  007516  0EBA               u587:
  1271  007518                     decfsz	wreg,f
  1272  007518  2EE8               	bra	u587
  1273  00751A  D7FE               	decfsz	(??_main+0+0)&0ffh,c,f
  1274  00751C  2E03               	bra	u587
  1275  00751E  D7FC               	decfsz	(??_main+0+0+1)&0ffh,c,f
  1276  007520  2E04               	bra	u587
  1277  007522  D7FA               	nop2
  1278  007524  D000               opt asmopt_pop
  1279                           
  1280                           	line	334
  1281                           	
  1282                           l1074:
  1283  007526                     ;main.c: 334:             if(PORTBbits.RB0 == 1) {
  1284                           	btfss	((c:3969)),c,0	;volatile
  1285  007526  A081               	goto	u371
  1286  007528  EF98  F03A         	goto	u370
  1287  00752C  EF9A  F03A         u371:
  1288  007530                     	goto	l1078
  1289  007530  EF9E  F03A         u370:
  1290  007534                     	line	335
  1291                           	
  1292                           l1076:
  1293  007534                     ;main.c: 335:                 cardDetected();
  1294                           	call	_cardDetected	;wreg free
  1295  007534  EC48  F03C         	goto	l1078
  1296  007538  EF9E  F03A         	line	336
  1297                           ;main.c: 336:             }
  1298                           	
  1299                           l155:
  1300  00753C                     	line	337
  1301                           	
  1302                           l1078:
  1303  00753C                     ;main.c: 337:         }
  1304                           	infsnz	((c:main@i_727)),c
  1305  00753C  4A07               	incf	((c:main@i_727+1)),c
  1306  00753E  2A08               	
  1307                           l1080:
  1308  007540                     	btfsc	((c:main@i_727+1)),c,7
  1309  007540  BE08               	goto	u381
  1310  007542  EFAC  F03A         	movf	((c:main@i_727+1)),c,w
  1311  007546  5008               	bnz	u380
  1312  007548  E109               	movlw	50
  1313  00754A  0E32               	subwf	 ((c:main@i_727)),c,w
  1314  00754C  5C07               	btfss	status,0
  1315  00754E  A0D8               	goto	u381
  1316  007550  EFAC  F03A         	goto	u380
  1317  007554  EFAE  F03A         
  1318                           u381:
  1319  007558                     	goto	l1072
  1320  007558  EF87  F03A         u380:
  1321  00755C                     	goto	l1082
  1322  00755C  EFB0  F03A         	
  1323                           l154:
  1324  007560                     	line	338
  1325                           	
  1326                           l1082:
  1327  007560                     ;main.c: 338:         option = 2;
  1328                           	movlw	high(02h)
  1329  007560  0E00               	movwf	((c:_option+1)),c
  1330  007562  6E16               	movlw	low(02h)
  1331  007564  0E02               	movwf	((c:_option)),c
  1332  007566  6E15               	line	339
  1333                           	
  1334                           l1084:
  1335  007568                     ;main.c: 339:         PORTBbits.RB3 = 1;
  1336                           	bsf	((c:3969)),c,3	;volatile
  1337  007568  8681               	line	340
  1338                           	
  1339                           l1086:
  1340  00756A                     ;main.c: 340:         PORTBbits.RB6 = 1;
  1341                           	bsf	((c:3969)),c,6	;volatile
  1342  00756A  8C81               	line	341
  1343                           ;main.c: 341:         for(int i = 0; i < 25; i++) {
  1344                           	movlw	high(0)
  1345  00756C  0E00               	movwf	((c:main@i_728+1)),c
  1346  00756E  6E0A               	movlw	low(0)
  1347  007570  0E00               	movwf	((c:main@i_728)),c
  1348  007572  6E09               	
  1349                           l1088:
  1350  007574                     	btfsc	((c:main@i_728+1)),c,7
  1351  007574  BE0A               	goto	u391
  1352  007576  EFC6  F03A         	movf	((c:main@i_728+1)),c,w
  1353  00757A  500A               	bnz	u390
  1354  00757C  E109               	movlw	25
  1355  00757E  0E19               	subwf	 ((c:main@i_728)),c,w
  1356  007580  5C09               	btfss	status,0
  1357  007582  A0D8               	goto	u391
  1358  007584  EFC6  F03A         	goto	u390
  1359  007588  EFC8  F03A         
  1360                           u391:
  1361  00758C                     	goto	l1092
  1362  00758C  EFCC  F03A         u390:
  1363  007590                     	goto	l1102
  1364  007590  EFF5  F03A         	
  1365                           l1090:
  1366  007594                     	goto	l1102
  1367  007594  EFF5  F03A         	
  1368                           l156:
  1369  007598                     	line	342
  1370                           	
  1371                           l1092:
  1372  007598                     ;main.c: 342:             _delay((unsigned long)((100)*(8000000/4000.0)));
  1373                           	opt asmopt_push
  1374                           opt asmopt_off
  1375                           movlw  2
  1376  007598  0E02               movwf	(??_main+0+0+1)&0ffh,c,f
  1377  00759A  6E04               movlw	4
  1378  00759C  0E04               movwf	(??_main+0+0)&0ffh,c,f
  1379  00759E  6E03               	movlw	186
  1380  0075A0  0EBA               u597:
  1381  0075A2                     decfsz	wreg,f
  1382  0075A2  2EE8               	bra	u597
  1383  0075A4  D7FE               	decfsz	(??_main+0+0)&0ffh,c,f
  1384  0075A6  2E03               	bra	u597
  1385  0075A8  D7FC               	decfsz	(??_main+0+0+1)&0ffh,c,f
  1386  0075AA  2E04               	bra	u597
  1387  0075AC  D7FA               	nop2
  1388  0075AE  D000               opt asmopt_pop
  1389                           
  1390                           	line	343
  1391                           	
  1392                           l1094:
  1393  0075B0                     ;main.c: 343:             if(PORTBbits.RB0 == 1) {
  1394                           	btfss	((c:3969)),c,0	;volatile
  1395  0075B0  A081               	goto	u401
  1396  0075B2  EFDD  F03A         	goto	u400
  1397  0075B6  EFDF  F03A         u401:
  1398  0075BA                     	goto	l1098
  1399  0075BA  EFE3  F03A         u400:
  1400  0075BE                     	line	344
  1401                           	
  1402                           l1096:
  1403  0075BE                     ;main.c: 344:                 cardDetected();
  1404                           	call	_cardDetected	;wreg free
  1405  0075BE  EC48  F03C         	goto	l1098
  1406  0075C2  EFE3  F03A         	line	345
  1407                           ;main.c: 345:             }
  1408                           	
  1409                           l158:
  1410  0075C6                     	line	346
  1411                           	
  1412                           l1098:
  1413  0075C6                     ;main.c: 346:         }
  1414                           	infsnz	((c:main@i_728)),c
  1415  0075C6  4A09               	incf	((c:main@i_728+1)),c
  1416  0075C8  2A0A               	
  1417                           l1100:
  1418  0075CA                     	btfsc	((c:main@i_728+1)),c,7
  1419  0075CA  BE0A               	goto	u411
  1420  0075CC  EFF1  F03A         	movf	((c:main@i_728+1)),c,w
  1421  0075D0  500A               	bnz	u410
  1422  0075D2  E109               	movlw	25
  1423  0075D4  0E19               	subwf	 ((c:main@i_728)),c,w
  1424  0075D6  5C09               	btfss	status,0
  1425  0075D8  A0D8               	goto	u411
  1426  0075DA  EFF1  F03A         	goto	u410
  1427  0075DE  EFF3  F03A         
  1428                           u411:
  1429  0075E2                     	goto	l1092
  1430  0075E2  EFCC  F03A         u410:
  1431  0075E6                     	goto	l1102
  1432  0075E6  EFF5  F03A         	
  1433                           l157:
  1434  0075EA                     	line	347
  1435                           	
  1436                           l1102:
  1437  0075EA                     ;main.c: 347:         road2();
  1438                           	call	_road2	;wreg free
  1439  0075EA  ECC9  F039         	line	348
  1440                           	
  1441                           l1104:
  1442  0075EE                     ;main.c: 348:         for(int i = 0; i < 50; i++) {
  1443                           	movlw	high(0)
  1444  0075EE  0E00               	movwf	((c:main@i_729+1)),c
  1445  0075F0  6E0C               	movlw	low(0)
  1446  0075F2  0E00               	movwf	((c:main@i_729)),c
  1447  0075F4  6E0B               	
  1448                           l1106:
  1449  0075F6                     	btfsc	((c:main@i_729+1)),c,7
  1450  0075F6  BE0C               	goto	u421
  1451  0075F8  EF07  F03B         	movf	((c:main@i_729+1)),c,w
  1452  0075FC  500C               	bnz	u420
  1453  0075FE  E109               	movlw	50
  1454  007600  0E32               	subwf	 ((c:main@i_729)),c,w
  1455  007602  5C0B               	btfss	status,0
  1456  007604  A0D8               	goto	u421
  1457  007606  EF07  F03B         	goto	u420
  1458  00760A  EF09  F03B         
  1459                           u421:
  1460  00760E                     	goto	l1110
  1461  00760E  EF0D  F03B         u420:
  1462  007612                     	goto	l1120
  1463  007612  EF36  F03B         	
  1464                           l1108:
  1465  007616                     	goto	l1120
  1466  007616  EF36  F03B         	
  1467                           l159:
  1468  00761A                     	line	349
  1469                           	
  1470                           l1110:
  1471  00761A                     ;main.c: 349:             _delay((unsigned long)((100)*(8000000/4000.0)));
  1472                           	opt asmopt_push
  1473                           opt asmopt_off
  1474                           movlw  2
  1475  00761A  0E02               movwf	(??_main+0+0+1)&0ffh,c,f
  1476  00761C  6E04               movlw	4
  1477  00761E  0E04               movwf	(??_main+0+0)&0ffh,c,f
  1478  007620  6E03               	movlw	186
  1479  007622  0EBA               u607:
  1480  007624                     decfsz	wreg,f
  1481  007624  2EE8               	bra	u607
  1482  007626  D7FE               	decfsz	(??_main+0+0)&0ffh,c,f
  1483  007628  2E03               	bra	u607
  1484  00762A  D7FC               	decfsz	(??_main+0+0+1)&0ffh,c,f
  1485  00762C  2E04               	bra	u607
  1486  00762E  D7FA               	nop2
  1487  007630  D000               opt asmopt_pop
  1488                           
  1489                           	line	350
  1490                           	
  1491                           l1112:
  1492  007632                     ;main.c: 350:             if(PORTBbits.RB0 == 1) {
  1493                           	btfss	((c:3969)),c,0	;volatile
  1494  007632  A081               	goto	u431
  1495  007634  EF1E  F03B         	goto	u430
  1496  007638  EF20  F03B         u431:
  1497  00763C                     	goto	l1116
  1498  00763C  EF24  F03B         u430:
  1499  007640                     	line	351
  1500                           	
  1501                           l1114:
  1502  007640                     ;main.c: 351:                 cardDetected();
  1503                           	call	_cardDetected	;wreg free
  1504  007640  EC48  F03C         	goto	l1116
  1505  007644  EF24  F03B         	line	352
  1506                           ;main.c: 352:             }
  1507                           	
  1508                           l161:
  1509  007648                     	line	353
  1510                           	
  1511                           l1116:
  1512  007648                     ;main.c: 353:         }
  1513                           	infsnz	((c:main@i_729)),c
  1514  007648  4A0B               	incf	((c:main@i_729+1)),c
  1515  00764A  2A0C               	
  1516                           l1118:
  1517  00764C                     	btfsc	((c:main@i_729+1)),c,7
  1518  00764C  BE0C               	goto	u441
  1519  00764E  EF32  F03B         	movf	((c:main@i_729+1)),c,w
  1520  007652  500C               	bnz	u440
  1521  007654  E109               	movlw	50
  1522  007656  0E32               	subwf	 ((c:main@i_729)),c,w
  1523  007658  5C0B               	btfss	status,0
  1524  00765A  A0D8               	goto	u441
  1525  00765C  EF32  F03B         	goto	u440
  1526  007660  EF34  F03B         
  1527                           u441:
  1528  007664                     	goto	l1110
  1529  007664  EF0D  F03B         u440:
  1530  007668                     	goto	l1120
  1531  007668  EF36  F03B         	
  1532                           l160:
  1533  00766C                     	line	355
  1534                           	
  1535                           l1120:
  1536  00766C                     ;main.c: 355:         option = 3;
  1537                           	movlw	high(03h)
  1538  00766C  0E00               	movwf	((c:_option+1)),c
  1539  00766E  6E16               	movlw	low(03h)
  1540  007670  0E03               	movwf	((c:_option)),c
  1541  007672  6E15               	line	356
  1542                           	
  1543                           l1122:
  1544  007674                     ;main.c: 356:         PORTDbits.RD6 = 1;
  1545                           	bsf	((c:3971)),c,6	;volatile
  1546  007674  8C83               	line	357
  1547                           	
  1548                           l1124:
  1549  007676                     ;main.c: 357:         PORTBbits.RB3 = 1;
  1550                           	bsf	((c:3969)),c,3	;volatile
  1551  007676  8681               	line	358
  1552                           ;main.c: 358:         for(int i = 0; i < 25; i++) {
  1553                           	movlw	high(0)
  1554  007678  0E00               	movwf	((c:main@i_730+1)),c
  1555  00767A  6E0E               	movlw	low(0)
  1556  00767C  0E00               	movwf	((c:main@i_730)),c
  1557  00767E  6E0D               	
  1558                           l1126:
  1559  007680                     	btfsc	((c:main@i_730+1)),c,7
  1560  007680  BE0E               	goto	u451
  1561  007682  EF4C  F03B         	movf	((c:main@i_730+1)),c,w
  1562  007686  500E               	bnz	u450
  1563  007688  E109               	movlw	25
  1564  00768A  0E19               	subwf	 ((c:main@i_730)),c,w
  1565  00768C  5C0D               	btfss	status,0
  1566  00768E  A0D8               	goto	u451
  1567  007690  EF4C  F03B         	goto	u450
  1568  007694  EF4E  F03B         
  1569                           u451:
  1570  007698                     	goto	l1130
  1571  007698  EF52  F03B         u450:
  1572  00769C                     	goto	l1140
  1573  00769C  EF7B  F03B         	
  1574                           l1128:
  1575  0076A0                     	goto	l1140
  1576  0076A0  EF7B  F03B         	
  1577                           l162:
  1578  0076A4                     	line	359
  1579                           	
  1580                           l1130:
  1581  0076A4                     ;main.c: 359:             _delay((unsigned long)((100)*(8000000/4000.0)));
  1582                           	opt asmopt_push
  1583                           opt asmopt_off
  1584                           movlw  2
  1585  0076A4  0E02               movwf	(??_main+0+0+1)&0ffh,c,f
  1586  0076A6  6E04               movlw	4
  1587  0076A8  0E04               movwf	(??_main+0+0)&0ffh,c,f
  1588  0076AA  6E03               	movlw	186
  1589  0076AC  0EBA               u617:
  1590  0076AE                     decfsz	wreg,f
  1591  0076AE  2EE8               	bra	u617
  1592  0076B0  D7FE               	decfsz	(??_main+0+0)&0ffh,c,f
  1593  0076B2  2E03               	bra	u617
  1594  0076B4  D7FC               	decfsz	(??_main+0+0+1)&0ffh,c,f
  1595  0076B6  2E04               	bra	u617
  1596  0076B8  D7FA               	nop2
  1597  0076BA  D000               opt asmopt_pop
  1598                           
  1599                           	line	360
  1600                           	
  1601                           l1132:
  1602  0076BC                     ;main.c: 360:             if(PORTBbits.RB0 == 1) {
  1603                           	btfss	((c:3969)),c,0	;volatile
  1604  0076BC  A081               	goto	u461
  1605  0076BE  EF63  F03B         	goto	u460
  1606  0076C2  EF65  F03B         u461:
  1607  0076C6                     	goto	l1136
  1608  0076C6  EF69  F03B         u460:
  1609  0076CA                     	line	361
  1610                           	
  1611                           l1134:
  1612  0076CA                     ;main.c: 361:                 cardDetected();
  1613                           	call	_cardDetected	;wreg free
  1614  0076CA  EC48  F03C         	goto	l1136
  1615  0076CE  EF69  F03B         	line	362
  1616                           ;main.c: 362:             }
  1617                           	
  1618                           l164:
  1619  0076D2                     	line	363
  1620                           	
  1621                           l1136:
  1622  0076D2                     ;main.c: 363:         }
  1623                           	infsnz	((c:main@i_730)),c
  1624  0076D2  4A0D               	incf	((c:main@i_730+1)),c
  1625  0076D4  2A0E               	
  1626                           l1138:
  1627  0076D6                     	btfsc	((c:main@i_730+1)),c,7
  1628  0076D6  BE0E               	goto	u471
  1629  0076D8  EF77  F03B         	movf	((c:main@i_730+1)),c,w
  1630  0076DC  500E               	bnz	u470
  1631  0076DE  E109               	movlw	25
  1632  0076E0  0E19               	subwf	 ((c:main@i_730)),c,w
  1633  0076E2  5C0D               	btfss	status,0
  1634  0076E4  A0D8               	goto	u471
  1635  0076E6  EF77  F03B         	goto	u470
  1636  0076EA  EF79  F03B         
  1637                           u471:
  1638  0076EE                     	goto	l1130
  1639  0076EE  EF52  F03B         u470:
  1640  0076F2                     	goto	l1140
  1641  0076F2  EF7B  F03B         	
  1642                           l163:
  1643  0076F6                     	line	364
  1644                           	
  1645                           l1140:
  1646  0076F6                     ;main.c: 364:         road3();
  1647                           	call	_road3	;wreg free
  1648  0076F6  ECD6  F039         	line	365
  1649                           	
  1650                           l1142:
  1651  0076FA                     ;main.c: 365:         for(int i = 0; i < 50; i++) {
  1652                           	movlw	high(0)
  1653  0076FA  0E00               	movwf	((c:main@i_731+1)),c
  1654  0076FC  6E10               	movlw	low(0)
  1655  0076FE  0E00               	movwf	((c:main@i_731)),c
  1656  007700  6E0F               	
  1657                           l1144:
  1658  007702                     	btfsc	((c:main@i_731+1)),c,7
  1659  007702  BE10               	goto	u481
  1660  007704  EF8D  F03B         	movf	((c:main@i_731+1)),c,w
  1661  007708  5010               	bnz	u480
  1662  00770A  E109               	movlw	50
  1663  00770C  0E32               	subwf	 ((c:main@i_731)),c,w
  1664  00770E  5C0F               	btfss	status,0
  1665  007710  A0D8               	goto	u481
  1666  007712  EF8D  F03B         	goto	u480
  1667  007716  EF8F  F03B         
  1668                           u481:
  1669  00771A                     	goto	l1148
  1670  00771A  EF93  F03B         u480:
  1671  00771E                     	goto	l1158
  1672  00771E  EFBC  F03B         	
  1673                           l1146:
  1674  007722                     	goto	l1158
  1675  007722  EFBC  F03B         	
  1676                           l165:
  1677  007726                     	line	366
  1678                           	
  1679                           l1148:
  1680  007726                     ;main.c: 366:             _delay((unsigned long)((100)*(8000000/4000.0)));
  1681                           	opt asmopt_push
  1682                           opt asmopt_off
  1683                           movlw  2
  1684  007726  0E02               movwf	(??_main+0+0+1)&0ffh,c,f
  1685  007728  6E04               movlw	4
  1686  00772A  0E04               movwf	(??_main+0+0)&0ffh,c,f
  1687  00772C  6E03               	movlw	186
  1688  00772E  0EBA               u627:
  1689  007730                     decfsz	wreg,f
  1690  007730  2EE8               	bra	u627
  1691  007732  D7FE               	decfsz	(??_main+0+0)&0ffh,c,f
  1692  007734  2E03               	bra	u627
  1693  007736  D7FC               	decfsz	(??_main+0+0+1)&0ffh,c,f
  1694  007738  2E04               	bra	u627
  1695  00773A  D7FA               	nop2
  1696  00773C  D000               opt asmopt_pop
  1697                           
  1698                           	line	367
  1699                           	
  1700                           l1150:
  1701  00773E                     ;main.c: 367:             if(PORTBbits.RB0 == 1) {
  1702                           	btfss	((c:3969)),c,0	;volatile
  1703  00773E  A081               	goto	u491
  1704  007740  EFA4  F03B         	goto	u490
  1705  007744  EFA6  F03B         u491:
  1706  007748                     	goto	l1154
  1707  007748  EFAA  F03B         u490:
  1708  00774C                     	line	368
  1709                           	
  1710                           l1152:
  1711  00774C                     ;main.c: 368:                 cardDetected();
  1712                           	call	_cardDetected	;wreg free
  1713  00774C  EC48  F03C         	goto	l1154
  1714  007750  EFAA  F03B         	line	369
  1715                           ;main.c: 369:             }
  1716                           	
  1717                           l167:
  1718  007754                     	line	370
  1719                           	
  1720                           l1154:
  1721  007754                     ;main.c: 370:         }
  1722                           	infsnz	((c:main@i_731)),c
  1723  007754  4A0F               	incf	((c:main@i_731+1)),c
  1724  007756  2A10               	
  1725                           l1156:
  1726  007758                     	btfsc	((c:main@i_731+1)),c,7
  1727  007758  BE10               	goto	u501
  1728  00775A  EFB8  F03B         	movf	((c:main@i_731+1)),c,w
  1729  00775E  5010               	bnz	u500
  1730  007760  E109               	movlw	50
  1731  007762  0E32               	subwf	 ((c:main@i_731)),c,w
  1732  007764  5C0F               	btfss	status,0
  1733  007766  A0D8               	goto	u501
  1734  007768  EFB8  F03B         	goto	u500
  1735  00776C  EFBA  F03B         
  1736                           u501:
  1737  007770                     	goto	l1148
  1738  007770  EF93  F03B         u500:
  1739  007774                     	goto	l1158
  1740  007774  EFBC  F03B         	
  1741                           l166:
  1742  007778                     	line	372
  1743                           	
  1744                           l1158:
  1745  007778                     ;main.c: 372:         option = 4;
  1746                           	movlw	high(04h)
  1747  007778  0E00               	movwf	((c:_option+1)),c
  1748  00777A  6E16               	movlw	low(04h)
  1749  00777C  0E04               	movwf	((c:_option)),c
  1750  00777E  6E15               	line	373
  1751                           	
  1752                           l1160:
  1753  007780                     ;main.c: 373:         PORTCbits.RC6 = 1;
  1754                           	bsf	((c:3970)),c,6	;volatile
  1755  007780  8C82               	line	374
  1756                           	
  1757                           l1162:
  1758  007782                     ;main.c: 374:         PORTDbits.RD6 = 1;
  1759                           	bsf	((c:3971)),c,6	;volatile
  1760  007782  8C83               	line	375
  1761                           ;main.c: 375:         for(int i = 0; i < 25; i++) {
  1762                           	movlw	high(0)
  1763  007784  0E00               	movwf	((c:main@i_732+1)),c
  1764  007786  6E12               	movlw	low(0)
  1765  007788  0E00               	movwf	((c:main@i_732)),c
  1766  00778A  6E11               	
  1767                           l1164:
  1768  00778C                     	btfsc	((c:main@i_732+1)),c,7
  1769  00778C  BE12               	goto	u511
  1770  00778E  EFD2  F03B         	movf	((c:main@i_732+1)),c,w
  1771  007792  5012               	bnz	u510
  1772  007794  E109               	movlw	25
  1773  007796  0E19               	subwf	 ((c:main@i_732)),c,w
  1774  007798  5C11               	btfss	status,0
  1775  00779A  A0D8               	goto	u511
  1776  00779C  EFD2  F03B         	goto	u510
  1777  0077A0  EFD4  F03B         
  1778                           u511:
  1779  0077A4                     	goto	l1168
  1780  0077A4  EFD8  F03B         u510:
  1781  0077A8                     	goto	l1178
  1782  0077A8  EF01  F03C         	
  1783                           l1166:
  1784  0077AC                     	goto	l1178
  1785  0077AC  EF01  F03C         	
  1786                           l168:
  1787  0077B0                     	line	376
  1788                           	
  1789                           l1168:
  1790  0077B0                     ;main.c: 376:             _delay((unsigned long)((100)*(8000000/4000.0)));
  1791                           	opt asmopt_push
  1792                           opt asmopt_off
  1793                           movlw  2
  1794  0077B0  0E02               movwf	(??_main+0+0+1)&0ffh,c,f
  1795  0077B2  6E04               movlw	4
  1796  0077B4  0E04               movwf	(??_main+0+0)&0ffh,c,f
  1797  0077B6  6E03               	movlw	186
  1798  0077B8  0EBA               u637:
  1799  0077BA                     decfsz	wreg,f
  1800  0077BA  2EE8               	bra	u637
  1801  0077BC  D7FE               	decfsz	(??_main+0+0)&0ffh,c,f
  1802  0077BE  2E03               	bra	u637
  1803  0077C0  D7FC               	decfsz	(??_main+0+0+1)&0ffh,c,f
  1804  0077C2  2E04               	bra	u637
  1805  0077C4  D7FA               	nop2
  1806  0077C6  D000               opt asmopt_pop
  1807                           
  1808                           	line	377
  1809                           	
  1810                           l1170:
  1811  0077C8                     ;main.c: 377:             if(PORTBbits.RB0 == 1) {
  1812                           	btfss	((c:3969)),c,0	;volatile
  1813  0077C8  A081               	goto	u521
  1814  0077CA  EFE9  F03B         	goto	u520
  1815  0077CE  EFEB  F03B         u521:
  1816  0077D2                     	goto	l1174
  1817  0077D2  EFEF  F03B         u520:
  1818  0077D6                     	line	378
  1819                           	
  1820                           l1172:
  1821  0077D6                     ;main.c: 378:                 cardDetected();
  1822                           	call	_cardDetected	;wreg free
  1823  0077D6  EC48  F03C         	goto	l1174
  1824  0077DA  EFEF  F03B         	line	379
  1825                           ;main.c: 379:             }
  1826                           	
  1827                           l170:
  1828  0077DE                     	line	380
  1829                           	
  1830                           l1174:
  1831  0077DE                     ;main.c: 380:         }
  1832                           	infsnz	((c:main@i_732)),c
  1833  0077DE  4A11               	incf	((c:main@i_732+1)),c
  1834  0077E0  2A12               	
  1835                           l1176:
  1836  0077E2                     	btfsc	((c:main@i_732+1)),c,7
  1837  0077E2  BE12               	goto	u531
  1838  0077E4  EFFD  F03B         	movf	((c:main@i_732+1)),c,w
  1839  0077E8  5012               	bnz	u530
  1840  0077EA  E109               	movlw	25
  1841  0077EC  0E19               	subwf	 ((c:main@i_732)),c,w
  1842  0077EE  5C11               	btfss	status,0
  1843  0077F0  A0D8               	goto	u531
  1844  0077F2  EFFD  F03B         	goto	u530
  1845  0077F6  EFFF  F03B         
  1846                           u531:
  1847  0077FA                     	goto	l1168
  1848  0077FA  EFD8  F03B         u530:
  1849  0077FE                     	goto	l1178
  1850  0077FE  EF01  F03C         	
  1851                           l169:
  1852  007802                     	line	381
  1853                           	
  1854                           l1178:
  1855  007802                     ;main.c: 381:         road4();
  1856                           	call	_road4	;wreg free
  1857  007802  ECE3  F039         	line	382
  1858                           	
  1859                           l1180:
  1860  007806                     ;main.c: 382:         for(int i = 0; i < 50; i++) {
  1861                           	movlw	high(0)
  1862  007806  0E00               	movwf	((c:main@i_733+1)),c
  1863  007808  6E14               	movlw	low(0)
  1864  00780A  0E00               	movwf	((c:main@i_733)),c
  1865  00780C  6E13               	
  1866                           l1182:
  1867  00780E                     	btfsc	((c:main@i_733+1)),c,7
  1868  00780E  BE14               	goto	u541
  1869  007810  EF13  F03C         	movf	((c:main@i_733+1)),c,w
  1870  007814  5014               	bnz	u540
  1871  007816  E109               	movlw	50
  1872  007818  0E32               	subwf	 ((c:main@i_733)),c,w
  1873  00781A  5C13               	btfss	status,0
  1874  00781C  A0D8               	goto	u541
  1875  00781E  EF13  F03C         	goto	u540
  1876  007822  EF15  F03C         
  1877                           u541:
  1878  007826                     	goto	l1186
  1879  007826  EF19  F03C         u540:
  1880  00782A                     	goto	l149
  1881  00782A  EF2A  F03A         	
  1882                           l1184:
  1883  00782E                     	goto	l149
  1884  00782E  EF2A  F03A         	
  1885                           l171:
  1886  007832                     	line	383
  1887                           	
  1888                           l1186:
  1889  007832                     ;main.c: 383:             _delay((unsigned long)((100)*(8000000/4000.0)));
  1890                           	opt asmopt_push
  1891                           opt asmopt_off
  1892                           movlw  2
  1893  007832  0E02               movwf	(??_main+0+0+1)&0ffh,c,f
  1894  007834  6E04               movlw	4
  1895  007836  0E04               movwf	(??_main+0+0)&0ffh,c,f
  1896  007838  6E03               	movlw	186
  1897  00783A  0EBA               u647:
  1898  00783C                     decfsz	wreg,f
  1899  00783C  2EE8               	bra	u647
  1900  00783E  D7FE               	decfsz	(??_main+0+0)&0ffh,c,f
  1901  007840  2E03               	bra	u647
  1902  007842  D7FC               	decfsz	(??_main+0+0+1)&0ffh,c,f
  1903  007844  2E04               	bra	u647
  1904  007846  D7FA               	nop2
  1905  007848  D000               opt asmopt_pop
  1906                           
  1907                           	line	384
  1908                           	
  1909                           l1188:
  1910  00784A                     ;main.c: 384:             if(PORTBbits.RB0 == 1) {
  1911                           	btfss	((c:3969)),c,0	;volatile
  1912  00784A  A081               	goto	u551
  1913  00784C  EF2A  F03C         	goto	u550
  1914  007850  EF2C  F03C         u551:
  1915  007854                     	goto	l1192
  1916  007854  EF30  F03C         u550:
  1917  007858                     	line	385
  1918                           	
  1919                           l1190:
  1920  007858                     ;main.c: 385:                 cardDetected();
  1921                           	call	_cardDetected	;wreg free
  1922  007858  EC48  F03C         	goto	l1192
  1923  00785C  EF30  F03C         	line	386
  1924                           ;main.c: 386:             }
  1925                           	
  1926                           l173:
  1927  007860                     	line	387
  1928                           	
  1929                           l1192:
  1930  007860                     ;main.c: 387:         }
  1931                           	infsnz	((c:main@i_733)),c
  1932  007860  4A13               	incf	((c:main@i_733+1)),c
  1933  007862  2A14               	
  1934                           l1194:
  1935  007864                     	btfsc	((c:main@i_733+1)),c,7
  1936  007864  BE14               	goto	u561
  1937  007866  EF3E  F03C         	movf	((c:main@i_733+1)),c,w
  1938  00786A  5014               	bnz	u560
  1939  00786C  E109               	movlw	50
  1940  00786E  0E32               	subwf	 ((c:main@i_733)),c,w
  1941  007870  5C13               	btfss	status,0
  1942  007872  A0D8               	goto	u561
  1943  007874  EF3E  F03C         	goto	u560
  1944  007878  EF40  F03C         
  1945                           u561:
  1946  00787C                     	goto	l1186
  1947  00787C  EF19  F03C         u560:
  1948  007880                     	goto	l149
  1949  007880  EF2A  F03A         	
  1950                           l172:
  1951  007884                     	goto	l149
  1952  007884  EF2A  F03A         	line	388
  1953                           ;main.c: 388:     }
  1954                           	
  1955                           l174:
  1956  007888                     	goto	l149
  1957  007888  EF2A  F03A         	
  1958                           l175:
  1959  00788C                     	line	390
  1960                           ;main.c: 389:     return;
  1961                           	
  1962                           l176:
  1963  00788C                     	global	start
  1964                           	goto	start
  1965  00788C  EF00  F000         	opt stack 0
  1966                           GLOBAL	__end_of_main
  1967                           	__end_of_main:
  1968  007890                     	signat	_main,89
  1969                           	global	_cardDetected
  1970                           
  1971 ;; *************** function _cardDetected *****************
  1972 ;; Defined at:
  1973 ;;		line 92 in file "main.c"
  1974 ;; Parameters:    Size  Location     Type
  1975 ;;		None
  1976 ;; Auto vars:     Size  Location     Type
  1977 ;;		None
  1978 ;; Return value:  Size  Location     Type
  1979 ;;                  1    wreg      void 
  1980 ;; Registers used:
  1981 ;;		wreg, status,2, status,0, cstack
  1982 ;; Tracked objects:
  1983 ;;		On entry : 0/0
  1984 ;;		On exit  : 0/0
  1985 ;;		Unchanged: 0/0
  1986 ;; Data sizes:     COMRAM   BANK0   BANK1   BANK2   BANK3   BANK4   BANK5
  1987 ;;      Params:         0       0       0       0       0       0       0
  1988 ;;      Locals:         0       0       0       0       0       0       0
  1989 ;;      Temps:          2       0       0       0       0       0       0
  1990 ;;      Totals:         2       0       0       0       0       0       0
  1991 ;;Total ram usage:        2 bytes
  1992 ;; Hardware stack levels used:    1
  1993 ;; Hardware stack levels required when called:    1
  1994 ;; This function calls:
  1995 ;;		_road1
  1996 ;;		_road2
  1997 ;;		_road3
  1998 ;;		_road4
  1999 ;; This function is called by:
  2000 ;;		_main
  2001 ;; This function uses a non-reentrant model
  2002 ;;
  2003                           psect	text1,class=CODE,space=0,reloc=2,group=0
  2004                           	line	92
  2005                           global __ptext1
  2006                           __ptext1:
  2007  007890                     psect	text1
  2008                           	file	"main.c"
  2009                           	line	92
  2010                           	global	__size_of_cardDetected
  2011                           	__size_of_cardDetected	equ	__end_of_cardDetected-_cardDetected
  2012  0000                     	
  2013                           _cardDetected:
  2014  007890                     ;incstack = 0
  2015                           	opt	stack 29
  2016                           	line	93
  2017                           	
  2018                           l872:
  2019  007890                     ;main.c: 93:     INTCONbits.GIE = 0;
  2020                           	bcf	((c:4082)),c,7	;volatile
  2021  007890  9EF2               	line	95
  2022                           ;main.c: 95:     if(PORTAbits.RA0 == 0 && PORTAbits.RA1 == 0) {
  2023                           	btfsc	((c:3968)),c,0	;volatile
  2024  007892  B080               	goto	u11
  2025  007894  EF4E  F03C         	goto	u10
  2026  007898  EF50  F03C         u11:
  2027  00789C                     	goto	l53
  2028  00789C  EF35  F03D         u10:
  2029  0078A0                     	
  2030                           l874:
  2031  0078A0                     	btfsc	((c:3968)),c,1	;volatile
  2032  0078A0  B280               	goto	u21
  2033  0078A2  EF55  F03C         	goto	u20
  2034  0078A6  EF57  F03C         u21:
  2035  0078AA                     	goto	l53
  2036  0078AA  EF35  F03D         u20:
  2037  0078AE                     	goto	l886
  2038  0078AE  EF8F  F03C         	line	96
  2039                           	
  2040                           l876:
  2041  0078B2                     ;main.c: 96:         switch(option) {
  2042                           	goto	l886
  2043  0078B2  EF8F  F03C         	line	97
  2044                           ;main.c: 97:             case 1:
  2045                           	
  2046                           l55:
  2047  0078B6                     	line	98
  2048                           ;main.c: 98:                 break;
  2049                           	goto	l888
  2050  0078B6  EFAD  F03C         	line	99
  2051                           ;main.c: 99:             case 2:
  2052                           	
  2053                           l57:
  2054  0078BA                     	line	100
  2055                           ;main.c: 100:                 PORTBbits.RB3 = 1;
  2056                           	bsf	((c:3969)),c,3	;volatile
  2057  0078BA  8681               	line	101
  2058                           ;main.c: 101:                 PORTBbits.RB6 = 1;
  2059                           	bsf	((c:3969)),c,6	;volatile
  2060  0078BC  8C81               	line	102
  2061                           	
  2062                           l878:
  2063  0078BE                     ;main.c: 102:                 _delay((unsigned long)((25*100)*(8000000/4000.0)));
  2064                           	opt asmopt_push
  2065                           opt asmopt_off
  2066                           movlw  26
  2067  0078BE  0E1A               movwf	(??_cardDetected+0+0+1)&0ffh,c,f
  2068  0078C0  6E02               movlw	94
  2069  0078C2  0E5E               movwf	(??_cardDetected+0+0)&0ffh,c,f
  2070  0078C4  6E01               	movlw	110
  2071  0078C6  0E6E               u657:
  2072  0078C8                     decfsz	wreg,f
  2073  0078C8  2EE8               	bra	u657
  2074  0078CA  D7FE               	decfsz	(??_cardDetected+0+0)&0ffh,c,f
  2075  0078CC  2E01               	bra	u657
  2076  0078CE  D7FC               	decfsz	(??_cardDetected+0+0+1)&0ffh,c,f
  2077  0078D0  2E02               	bra	u657
  2078  0078D2  D7FA               	nop2
  2079  0078D4  D000               opt asmopt_pop
  2080                           
  2081                           	line	103
  2082                           ;main.c: 103:                 break;
  2083                           	goto	l888
  2084  0078D6  EFAD  F03C         	line	104
  2085                           ;main.c: 104:             case 3:
  2086                           	
  2087                           l58:
  2088  0078DA                     	line	105
  2089                           ;main.c: 105:                 PORTDbits.RD6 = 1;
  2090                           	bsf	((c:3971)),c,6	;volatile
  2091  0078DA  8C83               	line	106
  2092                           ;main.c: 106:                 PORTBbits.RB6 = 1;
  2093                           	bsf	((c:3969)),c,6	;volatile
  2094  0078DC  8C81               	line	107
  2095                           	
  2096                           l880:
  2097  0078DE                     ;main.c: 107:                 _delay((unsigned long)((25*100)*(8000000/4000.0)));
  2098                           	opt asmopt_push
  2099                           opt asmopt_off
  2100                           movlw  26
  2101  0078DE  0E1A               movwf	(??_cardDetected+0+0+1)&0ffh,c,f
  2102  0078E0  6E02               movlw	94
  2103  0078E2  0E5E               movwf	(??_cardDetected+0+0)&0ffh,c,f
  2104  0078E4  6E01               	movlw	110
  2105  0078E6  0E6E               u667:
  2106  0078E8                     decfsz	wreg,f
  2107  0078E8  2EE8               	bra	u667
  2108  0078EA  D7FE               	decfsz	(??_cardDetected+0+0)&0ffh,c,f
  2109  0078EC  2E01               	bra	u667
  2110  0078EE  D7FC               	decfsz	(??_cardDetected+0+0+1)&0ffh,c,f
  2111  0078F0  2E02               	bra	u667
  2112  0078F2  D7FA               	nop2
  2113  0078F4  D000               opt asmopt_pop
  2114                           
  2115                           	line	108
  2116                           ;main.c: 108:                 break;
  2117                           	goto	l888
  2118  0078F6  EFAD  F03C         	line	109
  2119                           ;main.c: 109:             case 4:
  2120                           	
  2121                           l59:
  2122  0078FA                     	line	110
  2123                           ;main.c: 110:                 PORTCbits.RC6 = 1;
  2124                           	bsf	((c:3970)),c,6	;volatile
  2125  0078FA  8C82               	line	111
  2126                           ;main.c: 111:                 PORTBbits.RB6 = 1;
  2127                           	bsf	((c:3969)),c,6	;volatile
  2128  0078FC  8C81               	line	112
  2129                           	
  2130                           l882:
  2131  0078FE                     ;main.c: 112:                 _delay((unsigned long)((25*100)*(8000000/4000.0)));
  2132                           	opt asmopt_push
  2133                           opt asmopt_off
  2134                           movlw  26
  2135  0078FE  0E1A               movwf	(??_cardDetected+0+0+1)&0ffh,c,f
  2136  007900  6E02               movlw	94
  2137  007902  0E5E               movwf	(??_cardDetected+0+0)&0ffh,c,f
  2138  007904  6E01               	movlw	110
  2139  007906  0E6E               u677:
  2140  007908                     decfsz	wreg,f
  2141  007908  2EE8               	bra	u677
  2142  00790A  D7FE               	decfsz	(??_cardDetected+0+0)&0ffh,c,f
  2143  00790C  2E01               	bra	u677
  2144  00790E  D7FC               	decfsz	(??_cardDetected+0+0+1)&0ffh,c,f
  2145  007910  2E02               	bra	u677
  2146  007912  D7FA               	nop2
  2147  007914  D000               opt asmopt_pop
  2148                           
  2149                           	line	113
  2150                           ;main.c: 113:                 break;
  2151                           	goto	l888
  2152  007916  EFAD  F03C         	line	114
  2153                           	
  2154                           l884:
  2155  00791A                     ;main.c: 114:         }
  2156                           	goto	l888
  2157  00791A  EFAD  F03C         	
  2158                           l54:
  2159  00791E                     	
  2160                           l886:
  2161  00791E                     	movff	(c:_option),??_cardDetected+0+0
  2162  00791E  C015  F001         	movff	(c:_option+1),??_cardDetected+0+0+1
  2163  007922  C016  F002         	; Switch on 2 bytes has been partitioned into a top level switch of size 1, and 1 sub-s
                                 witches
  2164                           ; Switch size 1, requested type "space"
  2165                           ; Number of cases is 1, Range of values is 0 to 0
  2166                           ; switch strategies available:
  2167                           ; Name         Instructions Cycles
  2168                           ; simple_byte            4     3 (average)
  2169                           ;	Chosen strategy is simple_byte
  2170                           
  2171                           	movf ??_cardDetected+0+1,c,w
  2172  007926  5002               	xorlw	0^0	; case 0
  2173  007928  0A00               	skipnz
  2174  00792A  B4D8               	goto	l1356
  2175  00792C  EF9A  F03C         	goto	l888
  2176  007930  EFAD  F03C         	
  2177                           l1356:
  2178  007934                     ; Switch size 1, requested type "space"
  2179                           ; Number of cases is 4, Range of values is 1 to 4
  2180                           ; switch strategies available:
  2181                           ; Name         Instructions Cycles
  2182                           ; simple_byte           13     7 (average)
  2183                           ;	Chosen strategy is simple_byte
  2184                           
  2185                           	movf ??_cardDetected+0+0,c,w
  2186  007934  5001               	xorlw	1^0	; case 1
  2187  007936  0A01               	skipnz
  2188  007938  B4D8               	goto	l888
  2189  00793A  EFAD  F03C         	xorlw	2^1	; case 2
  2190  00793E  0A03               	skipnz
  2191  007940  B4D8               	goto	l57
  2192  007942  EF5D  F03C         	xorlw	3^2	; case 3
  2193  007946  0A01               	skipnz
  2194  007948  B4D8               	goto	l58
  2195  00794A  EF6D  F03C         	xorlw	4^3	; case 4
  2196  00794E  0A07               	skipnz
  2197  007950  B4D8               	goto	l59
  2198  007952  EF7D  F03C         	goto	l888
  2199  007956  EFAD  F03C         
  2200                           	
  2201                           l56:
  2202  00795A                     	line	115
  2203                           	
  2204                           l888:
  2205  00795A                     ;main.c: 115:         road1();
  2206                           	call	_road1	;wreg free
  2207  00795A  ECBC  F039         	line	116
  2208                           ;main.c: 116:         while((PORTAbits.RA0 == 0 && PORTAbits.RA1 == 1) || (PORTAbits.RA0
                                  == 1 && PORTAbits.RA1 == 0) || (PORTAbits.RA0 == 1 && PORTAbits.RA1 == 1));
  2209                           	goto	l60
  2210  00795E  EFB1  F03C         	
  2211                           l61:
  2212  007962                     	
  2213                           l60:
  2214  007962                     	btfsc	((c:3968)),c,0	;volatile
  2215  007962  B080               	goto	u31
  2216  007964  EFB6  F03C         	goto	u30
  2217  007968  EFB8  F03C         u31:
  2218  00796C                     	goto	l63
  2219  00796C  EFBF  F03C         u30:
  2220  007970                     	
  2221                           l890:
  2222  007970                     	btfsc	((c:3968)),c,1	;volatile
  2223  007970  B280               	goto	u41
  2224  007972  EFBD  F03C         	goto	u40
  2225  007976  EFBF  F03C         u41:
  2226  00797A                     	goto	l60
  2227  00797A  EFB1  F03C         u40:
  2228  00797E                     	
  2229                           l63:
  2230  00797E                     	btfss	((c:3968)),c,0	;volatile
  2231  00797E  A080               	goto	u51
  2232  007980  EFC4  F03C         	goto	u50
  2233  007984  EFC6  F03C         u51:
  2234  007988                     	goto	l65
  2235  007988  EFCD  F03C         u50:
  2236  00798C                     	
  2237                           l892:
  2238  00798C                     	btfss	((c:3968)),c,1	;volatile
  2239  00798C  A280               	goto	u61
  2240  00798E  EFCB  F03C         	goto	u60
  2241  007992  EFCD  F03C         u61:
  2242  007996                     	goto	l60
  2243  007996  EFB1  F03C         u60:
  2244  00799A                     	
  2245                           l65:
  2246  00799A                     	btfss	((c:3968)),c,0	;volatile
  2247  00799A  A080               	goto	u71
  2248  00799C  EFD2  F03C         	goto	u70
  2249  0079A0  EFD4  F03C         u71:
  2250  0079A4                     	goto	l904
  2251  0079A4  EF15  F03D         u70:
  2252  0079A8                     	
  2253                           l894:
  2254  0079A8                     	btfsc	((c:3968)),c,1	;volatile
  2255  0079A8  B280               	goto	u81
  2256  0079AA  EFD9  F03C         	goto	u80
  2257  0079AE  EFDB  F03C         u81:
  2258  0079B2                     	goto	l60
  2259  0079B2  EFB1  F03C         u80:
  2260  0079B6                     	goto	l904
  2261  0079B6  EF15  F03D         	
  2262                           l67:
  2263  0079BA                     	goto	l904
  2264  0079BA  EF15  F03D         	
  2265                           l68:
  2266  0079BE                     	line	117
  2267                           ;main.c: 117:         switch(option) {
  2268                           	goto	l904
  2269  0079BE  EF15  F03D         	line	118
  2270                           ;main.c: 118:             case 1:
  2271                           	
  2272                           l70:
  2273  0079C2                     	line	119
  2274                           ;main.c: 119:                 break;
  2275                           	goto	l75
  2276  0079C2  EFFD  F03F         	line	120
  2277                           ;main.c: 120:             case 2:
  2278                           	
  2279                           l72:
  2280  0079C6                     	line	121
  2281                           ;main.c: 121:                 PORTBbits.RB3 = 1;
  2282                           	bsf	((c:3969)),c,3	;volatile
  2283  0079C6  8681               	line	122
  2284                           ;main.c: 122:                 PORTBbits.RB6 = 1;
  2285                           	bsf	((c:3969)),c,6	;volatile
  2286  0079C8  8C81               	line	123
  2287                           	
  2288                           l896:
  2289  0079CA                     ;main.c: 123:                 _delay((unsigned long)((25*100)*(8000000/4000.0)));
  2290                           	opt asmopt_push
  2291                           opt asmopt_off
  2292                           movlw  26
  2293  0079CA  0E1A               movwf	(??_cardDetected+0+0+1)&0ffh,c,f
  2294  0079CC  6E02               movlw	94
  2295  0079CE  0E5E               movwf	(??_cardDetected+0+0)&0ffh,c,f
  2296  0079D0  6E01               	movlw	110
  2297  0079D2  0E6E               u687:
  2298  0079D4                     decfsz	wreg,f
  2299  0079D4  2EE8               	bra	u687
  2300  0079D6  D7FE               	decfsz	(??_cardDetected+0+0)&0ffh,c,f
  2301  0079D8  2E01               	bra	u687
  2302  0079DA  D7FC               	decfsz	(??_cardDetected+0+0+1)&0ffh,c,f
  2303  0079DC  2E02               	bra	u687
  2304  0079DE  D7FA               	nop2
  2305  0079E0  D000               opt asmopt_pop
  2306                           
  2307                           	line	124
  2308                           ;main.c: 124:                 break;
  2309                           	goto	l75
  2310  0079E2  EFFD  F03F         	line	125
  2311                           ;main.c: 125:             case 3:
  2312                           	
  2313                           l73:
  2314  0079E6                     	line	126
  2315                           ;main.c: 126:                 PORTDbits.RD6 = 1;
  2316                           	bsf	((c:3971)),c,6	;volatile
  2317  0079E6  8C83               	line	127
  2318                           ;main.c: 127:                 PORTBbits.RB6 = 1;
  2319                           	bsf	((c:3969)),c,6	;volatile
  2320  0079E8  8C81               	line	128
  2321                           	
  2322                           l898:
  2323  0079EA                     ;main.c: 128:                 _delay((unsigned long)((25*100)*(8000000/4000.0)));
  2324                           	opt asmopt_push
  2325                           opt asmopt_off
  2326                           movlw  26
  2327  0079EA  0E1A               movwf	(??_cardDetected+0+0+1)&0ffh,c,f
  2328  0079EC  6E02               movlw	94
  2329  0079EE  0E5E               movwf	(??_cardDetected+0+0)&0ffh,c,f
  2330  0079F0  6E01               	movlw	110
  2331  0079F2  0E6E               u697:
  2332  0079F4                     decfsz	wreg,f
  2333  0079F4  2EE8               	bra	u697
  2334  0079F6  D7FE               	decfsz	(??_cardDetected+0+0)&0ffh,c,f
  2335  0079F8  2E01               	bra	u697
  2336  0079FA  D7FC               	decfsz	(??_cardDetected+0+0+1)&0ffh,c,f
  2337  0079FC  2E02               	bra	u697
  2338  0079FE  D7FA               	nop2
  2339  007A00  D000               opt asmopt_pop
  2340                           
  2341                           	line	129
  2342                           ;main.c: 129:                 break;
  2343                           	goto	l75
  2344  007A02  EFFD  F03F         	line	130
  2345                           ;main.c: 130:             case 4:
  2346                           	
  2347                           l74:
  2348  007A06                     	line	131
  2349                           ;main.c: 131:                 PORTCbits.RC6 = 1;
  2350                           	bsf	((c:3970)),c,6	;volatile
  2351  007A06  8C82               	line	132
  2352                           ;main.c: 132:                 PORTBbits.RB6 = 1;
  2353                           	bsf	((c:3969)),c,6	;volatile
  2354  007A08  8C81               	line	133
  2355                           	
  2356                           l900:
  2357  007A0A                     ;main.c: 133:                 _delay((unsigned long)((25*100)*(8000000/4000.0)));
  2358                           	opt asmopt_push
  2359                           opt asmopt_off
  2360                           movlw  26
  2361  007A0A  0E1A               movwf	(??_cardDetected+0+0+1)&0ffh,c,f
  2362  007A0C  6E02               movlw	94
  2363  007A0E  0E5E               movwf	(??_cardDetected+0+0)&0ffh,c,f
  2364  007A10  6E01               	movlw	110
  2365  007A12  0E6E               u707:
  2366  007A14                     decfsz	wreg,f
  2367  007A14  2EE8               	bra	u707
  2368  007A16  D7FE               	decfsz	(??_cardDetected+0+0)&0ffh,c,f
  2369  007A18  2E01               	bra	u707
  2370  007A1A  D7FC               	decfsz	(??_cardDetected+0+0+1)&0ffh,c,f
  2371  007A1C  2E02               	bra	u707
  2372  007A1E  D7FA               	nop2
  2373  007A20  D000               opt asmopt_pop
  2374                           
  2375                           	line	134
  2376                           ;main.c: 134:                 break;
  2377                           	goto	l75
  2378  007A22  EFFD  F03F         	line	135
  2379                           	
  2380                           l902:
  2381  007A26                     ;main.c: 135:         }
  2382                           	goto	l75
  2383  007A26  EFFD  F03F         	
  2384                           l69:
  2385  007A2A                     	
  2386                           l904:
  2387  007A2A                     	movff	(c:_option),??_cardDetected+0+0
  2388  007A2A  C015  F001         	movff	(c:_option+1),??_cardDetected+0+0+1
  2389  007A2E  C016  F002         	; Switch on 2 bytes has been partitioned into a top level switch of size 1, and 1 sub-s
                                 witches
  2390                           ; Switch size 1, requested type "space"
  2391                           ; Number of cases is 1, Range of values is 0 to 0
  2392                           ; switch strategies available:
  2393                           ; Name         Instructions Cycles
  2394                           ; simple_byte            4     3 (average)
  2395                           ;	Chosen strategy is simple_byte
  2396                           
  2397                           	movf ??_cardDetected+0+1,c,w
  2398  007A32  5002               	xorlw	0^0	; case 0
  2399  007A34  0A00               	skipnz
  2400  007A36  B4D8               	goto	l1358
  2401  007A38  EF20  F03D         	goto	l75
  2402  007A3C  EFFD  F03F         	
  2403                           l1358:
  2404  007A40                     ; Switch size 1, requested type "space"
  2405                           ; Number of cases is 4, Range of values is 1 to 4
  2406                           ; switch strategies available:
  2407                           ; Name         Instructions Cycles
  2408                           ; simple_byte           13     7 (average)
  2409                           ;	Chosen strategy is simple_byte
  2410                           
  2411                           	movf ??_cardDetected+0+0,c,w
  2412  007A40  5001               	xorlw	1^0	; case 1
  2413  007A42  0A01               	skipnz
  2414  007A44  B4D8               	goto	l75
  2415  007A46  EFFD  F03F         	xorlw	2^1	; case 2
  2416  007A4A  0A03               	skipnz
  2417  007A4C  B4D8               	goto	l72
  2418  007A4E  EFE3  F03C         	xorlw	3^2	; case 3
  2419  007A52  0A01               	skipnz
  2420  007A54  B4D8               	goto	l73
  2421  007A56  EFF3  F03C         	xorlw	4^3	; case 4
  2422  007A5A  0A07               	skipnz
  2423  007A5C  B4D8               	goto	l74
  2424  007A5E  EF03  F03D         	goto	l75
  2425  007A62  EFFD  F03F         
  2426                           	
  2427                           l71:
  2428  007A66                     	line	136
  2429                           ;main.c: 136:     }
  2430                           	goto	l75
  2431  007A66  EFFD  F03F         	line	138
  2432                           ;main.c: 138:     else if(PORTAbits.RA0 == 0 && PORTAbits.RA1 == 1) {
  2433                           	
  2434                           l53:
  2435  007A6A                     	btfsc	((c:3968)),c,0	;volatile
  2436  007A6A  B080               	goto	u91
  2437  007A6C  EF3A  F03D         	goto	u90
  2438  007A70  EF3C  F03D         u91:
  2439  007A74                     	goto	l76
  2440  007A74  EF21  F03E         u90:
  2441  007A78                     	
  2442                           l906:
  2443  007A78                     	btfss	((c:3968)),c,1	;volatile
  2444  007A78  A280               	goto	u101
  2445  007A7A  EF41  F03D         	goto	u100
  2446  007A7E  EF43  F03D         u101:
  2447  007A82                     	goto	l76
  2448  007A82  EF21  F03E         u100:
  2449  007A86                     	goto	l918
  2450  007A86  EF7B  F03D         	line	139
  2451                           	
  2452                           l908:
  2453  007A8A                     ;main.c: 139:         switch(option) {
  2454                           	goto	l918
  2455  007A8A  EF7B  F03D         	line	140
  2456                           ;main.c: 140:             case 1:
  2457                           	
  2458                           l78:
  2459  007A8E                     	line	141
  2460                           ;main.c: 141:                 PORTBbits.RB6 = 1;
  2461                           	bsf	((c:3969)),c,6	;volatile
  2462  007A8E  8C81               	line	142
  2463                           ;main.c: 142:                 PORTBbits.RB3 = 1;
  2464                           	bsf	((c:3969)),c,3	;volatile
  2465  007A90  8681               	line	143
  2466                           	
  2467                           l910:
  2468  007A92                     ;main.c: 143:                 _delay((unsigned long)((25*100)*(8000000/4000.0)));
  2469                           	opt asmopt_push
  2470                           opt asmopt_off
  2471                           movlw  26
  2472  007A92  0E1A               movwf	(??_cardDetected+0+0+1)&0ffh,c,f
  2473  007A94  6E02               movlw	94
  2474  007A96  0E5E               movwf	(??_cardDetected+0+0)&0ffh,c,f
  2475  007A98  6E01               	movlw	110
  2476  007A9A  0E6E               u717:
  2477  007A9C                     decfsz	wreg,f
  2478  007A9C  2EE8               	bra	u717
  2479  007A9E  D7FE               	decfsz	(??_cardDetected+0+0)&0ffh,c,f
  2480  007AA0  2E01               	bra	u717
  2481  007AA2  D7FC               	decfsz	(??_cardDetected+0+0+1)&0ffh,c,f
  2482  007AA4  2E02               	bra	u717
  2483  007AA6  D7FA               	nop2
  2484  007AA8  D000               opt asmopt_pop
  2485                           
  2486                           	line	144
  2487                           ;main.c: 144:                 break;
  2488                           	goto	l920
  2489  007AAA  EF99  F03D         	line	145
  2490                           ;main.c: 145:             case 2:
  2491                           	
  2492                           l80:
  2493  007AAE                     	line	146
  2494                           ;main.c: 146:                 break;
  2495                           	goto	l920
  2496  007AAE  EF99  F03D         	line	147
  2497                           ;main.c: 147:             case 3:
  2498                           	
  2499                           l81:
  2500  007AB2                     	line	148
  2501                           ;main.c: 148:                 PORTDbits.RD6 = 1;
  2502                           	bsf	((c:3971)),c,6	;volatile
  2503  007AB2  8C83               	line	149
  2504                           ;main.c: 149:                 PORTBbits.RB3 = 1;
  2505                           	bsf	((c:3969)),c,3	;volatile
  2506  007AB4  8681               	line	150
  2507                           	
  2508                           l912:
  2509  007AB6                     ;main.c: 150:                 _delay((unsigned long)((25*100)*(8000000/4000.0)));
  2510                           	opt asmopt_push
  2511                           opt asmopt_off
  2512                           movlw  26
  2513  007AB6  0E1A               movwf	(??_cardDetected+0+0+1)&0ffh,c,f
  2514  007AB8  6E02               movlw	94
  2515  007ABA  0E5E               movwf	(??_cardDetected+0+0)&0ffh,c,f
  2516  007ABC  6E01               	movlw	110
  2517  007ABE  0E6E               u727:
  2518  007AC0                     decfsz	wreg,f
  2519  007AC0  2EE8               	bra	u727
  2520  007AC2  D7FE               	decfsz	(??_cardDetected+0+0)&0ffh,c,f
  2521  007AC4  2E01               	bra	u727
  2522  007AC6  D7FC               	decfsz	(??_cardDetected+0+0+1)&0ffh,c,f
  2523  007AC8  2E02               	bra	u727
  2524  007ACA  D7FA               	nop2
  2525  007ACC  D000               opt asmopt_pop
  2526                           
  2527                           	line	151
  2528                           ;main.c: 151:                 break;
  2529                           	goto	l920
  2530  007ACE  EF99  F03D         	line	152
  2531                           ;main.c: 152:             case 4:
  2532                           	
  2533                           l82:
  2534  007AD2                     	line	153
  2535                           ;main.c: 153:                 PORTCbits.RC6 = 1;
  2536                           	bsf	((c:3970)),c,6	;volatile
  2537  007AD2  8C82               	line	154
  2538                           ;main.c: 154:                 PORTBbits.RB3 = 1;
  2539                           	bsf	((c:3969)),c,3	;volatile
  2540  007AD4  8681               	line	155
  2541                           	
  2542                           l914:
  2543  007AD6                     ;main.c: 155:                 _delay((unsigned long)((25*100)*(8000000/4000.0)));
  2544                           	opt asmopt_push
  2545                           opt asmopt_off
  2546                           movlw  26
  2547  007AD6  0E1A               movwf	(??_cardDetected+0+0+1)&0ffh,c,f
  2548  007AD8  6E02               movlw	94
  2549  007ADA  0E5E               movwf	(??_cardDetected+0+0)&0ffh,c,f
  2550  007ADC  6E01               	movlw	110
  2551  007ADE  0E6E               u737:
  2552  007AE0                     decfsz	wreg,f
  2553  007AE0  2EE8               	bra	u737
  2554  007AE2  D7FE               	decfsz	(??_cardDetected+0+0)&0ffh,c,f
  2555  007AE4  2E01               	bra	u737
  2556  007AE6  D7FC               	decfsz	(??_cardDetected+0+0+1)&0ffh,c,f
  2557  007AE8  2E02               	bra	u737
  2558  007AEA  D7FA               	nop2
  2559  007AEC  D000               opt asmopt_pop
  2560                           
  2561                           	line	156
  2562                           ;main.c: 156:                 break;
  2563                           	goto	l920
  2564  007AEE  EF99  F03D         	line	157
  2565                           	
  2566                           l916:
  2567  007AF2                     ;main.c: 157:         }
  2568                           	goto	l920
  2569  007AF2  EF99  F03D         	
  2570                           l77:
  2571  007AF6                     	
  2572                           l918:
  2573  007AF6                     	movff	(c:_option),??_cardDetected+0+0
  2574  007AF6  C015  F001         	movff	(c:_option+1),??_cardDetected+0+0+1
  2575  007AFA  C016  F002         	; Switch on 2 bytes has been partitioned into a top level switch of size 1, and 1 sub-s
                                 witches
  2576                           ; Switch size 1, requested type "space"
  2577                           ; Number of cases is 1, Range of values is 0 to 0
  2578                           ; switch strategies available:
  2579                           ; Name         Instructions Cycles
  2580                           ; simple_byte            4     3 (average)
  2581                           ;	Chosen strategy is simple_byte
  2582                           
  2583                           	movf ??_cardDetected+0+1,c,w
  2584  007AFE  5002               	xorlw	0^0	; case 0
  2585  007B00  0A00               	skipnz
  2586  007B02  B4D8               	goto	l1360
  2587  007B04  EF86  F03D         	goto	l920
  2588  007B08  EF99  F03D         	
  2589                           l1360:
  2590  007B0C                     ; Switch size 1, requested type "space"
  2591                           ; Number of cases is 4, Range of values is 1 to 4
  2592                           ; switch strategies available:
  2593                           ; Name         Instructions Cycles
  2594                           ; simple_byte           13     7 (average)
  2595                           ;	Chosen strategy is simple_byte
  2596                           
  2597                           	movf ??_cardDetected+0+0,c,w
  2598  007B0C  5001               	xorlw	1^0	; case 1
  2599  007B0E  0A01               	skipnz
  2600  007B10  B4D8               	goto	l78
  2601  007B12  EF47  F03D         	xorlw	2^1	; case 2
  2602  007B16  0A03               	skipnz
  2603  007B18  B4D8               	goto	l920
  2604  007B1A  EF99  F03D         	xorlw	3^2	; case 3
  2605  007B1E  0A01               	skipnz
  2606  007B20  B4D8               	goto	l81
  2607  007B22  EF59  F03D         	xorlw	4^3	; case 4
  2608  007B26  0A07               	skipnz
  2609  007B28  B4D8               	goto	l82
  2610  007B2A  EF69  F03D         	goto	l920
  2611  007B2E  EF99  F03D         
  2612                           	
  2613                           l79:
  2614  007B32                     	line	158
  2615                           	
  2616                           l920:
  2617  007B32                     ;main.c: 158:         road2();
  2618                           	call	_road2	;wreg free
  2619  007B32  ECC9  F039         	line	159
  2620                           ;main.c: 159:         while((PORTAbits.RA0 == 0 && PORTAbits.RA1 == 0) || (PORTAbits.RA0
                                  == 1 && PORTAbits.RA1 == 0) || (PORTAbits.RA0 == 1 && PORTAbits.RA1 == 1));
  2621                           	goto	l83
  2622  007B36  EF9D  F03D         	
  2623                           l84:
  2624  007B3A                     	
  2625                           l83:
  2626  007B3A                     	btfsc	((c:3968)),c,0	;volatile
  2627  007B3A  B080               	goto	u111
  2628  007B3C  EFA2  F03D         	goto	u110
  2629  007B40  EFA4  F03D         u111:
  2630  007B44                     	goto	l86
  2631  007B44  EFAB  F03D         u110:
  2632  007B48                     	
  2633                           l922:
  2634  007B48                     	btfss	((c:3968)),c,1	;volatile
  2635  007B48  A280               	goto	u121
  2636  007B4A  EFA9  F03D         	goto	u120
  2637  007B4E  EFAB  F03D         u121:
  2638  007B52                     	goto	l83
  2639  007B52  EF9D  F03D         u120:
  2640  007B56                     	
  2641                           l86:
  2642  007B56                     	btfss	((c:3968)),c,0	;volatile
  2643  007B56  A080               	goto	u131
  2644  007B58  EFB0  F03D         	goto	u130
  2645  007B5C  EFB2  F03D         u131:
  2646  007B60                     	goto	l88
  2647  007B60  EFB9  F03D         u130:
  2648  007B64                     	
  2649                           l924:
  2650  007B64                     	btfss	((c:3968)),c,1	;volatile
  2651  007B64  A280               	goto	u141
  2652  007B66  EFB7  F03D         	goto	u140
  2653  007B6A  EFB9  F03D         u141:
  2654  007B6E                     	goto	l83
  2655  007B6E  EF9D  F03D         u140:
  2656  007B72                     	
  2657                           l88:
  2658  007B72                     	btfss	((c:3968)),c,0	;volatile
  2659  007B72  A080               	goto	u151
  2660  007B74  EFBE  F03D         	goto	u150
  2661  007B78  EFC0  F03D         u151:
  2662  007B7C                     	goto	l936
  2663  007B7C  EF01  F03E         u150:
  2664  007B80                     	
  2665                           l926:
  2666  007B80                     	btfsc	((c:3968)),c,1	;volatile
  2667  007B80  B280               	goto	u161
  2668  007B82  EFC5  F03D         	goto	u160
  2669  007B86  EFC7  F03D         u161:
  2670  007B8A                     	goto	l83
  2671  007B8A  EF9D  F03D         u160:
  2672  007B8E                     	goto	l936
  2673  007B8E  EF01  F03E         	
  2674                           l90:
  2675  007B92                     	goto	l936
  2676  007B92  EF01  F03E         	
  2677                           l91:
  2678  007B96                     	line	160
  2679                           ;main.c: 160:         switch(option) {
  2680                           	goto	l936
  2681  007B96  EF01  F03E         	line	161
  2682                           ;main.c: 161:             case 1:
  2683                           	
  2684                           l93:
  2685  007B9A                     	line	162
  2686                           ;main.c: 162:                 PORTBbits.RB6 = 1;
  2687                           	bsf	((c:3969)),c,6	;volatile
  2688  007B9A  8C81               	line	163
  2689                           ;main.c: 163:                 PORTBbits.RB3 = 1;
  2690                           	bsf	((c:3969)),c,3	;volatile
  2691  007B9C  8681               	line	164
  2692                           	
  2693                           l928:
  2694  007B9E                     ;main.c: 164:                 _delay((unsigned long)((25*100)*(8000000/4000.0)));
  2695                           	opt asmopt_push
  2696                           opt asmopt_off
  2697                           movlw  26
  2698  007B9E  0E1A               movwf	(??_cardDetected+0+0+1)&0ffh,c,f
  2699  007BA0  6E02               movlw	94
  2700  007BA2  0E5E               movwf	(??_cardDetected+0+0)&0ffh,c,f
  2701  007BA4  6E01               	movlw	110
  2702  007BA6  0E6E               u747:
  2703  007BA8                     decfsz	wreg,f
  2704  007BA8  2EE8               	bra	u747
  2705  007BAA  D7FE               	decfsz	(??_cardDetected+0+0)&0ffh,c,f
  2706  007BAC  2E01               	bra	u747
  2707  007BAE  D7FC               	decfsz	(??_cardDetected+0+0+1)&0ffh,c,f
  2708  007BB0  2E02               	bra	u747
  2709  007BB2  D7FA               	nop2
  2710  007BB4  D000               opt asmopt_pop
  2711                           
  2712                           	line	165
  2713                           ;main.c: 165:                 break;
  2714                           	goto	l75
  2715  007BB6  EFFD  F03F         	line	166
  2716                           ;main.c: 166:             case 2:
  2717                           	
  2718                           l95:
  2719  007BBA                     	line	167
  2720                           ;main.c: 167:                 break;
  2721                           	goto	l75
  2722  007BBA  EFFD  F03F         	line	168
  2723                           ;main.c: 168:             case 3:
  2724                           	
  2725                           l96:
  2726  007BBE                     	line	169
  2727                           ;main.c: 169:                 PORTDbits.RD6 = 1;
  2728                           	bsf	((c:3971)),c,6	;volatile
  2729  007BBE  8C83               	line	170
  2730                           ;main.c: 170:                 PORTBbits.RB3 = 1;
  2731                           	bsf	((c:3969)),c,3	;volatile
  2732  007BC0  8681               	line	171
  2733                           	
  2734                           l930:
  2735  007BC2                     ;main.c: 171:                 _delay((unsigned long)((25*100)*(8000000/4000.0)));
  2736                           	opt asmopt_push
  2737                           opt asmopt_off
  2738                           movlw  26
  2739  007BC2  0E1A               movwf	(??_cardDetected+0+0+1)&0ffh,c,f
  2740  007BC4  6E02               movlw	94
  2741  007BC6  0E5E               movwf	(??_cardDetected+0+0)&0ffh,c,f
  2742  007BC8  6E01               	movlw	110
  2743  007BCA  0E6E               u757:
  2744  007BCC                     decfsz	wreg,f
  2745  007BCC  2EE8               	bra	u757
  2746  007BCE  D7FE               	decfsz	(??_cardDetected+0+0)&0ffh,c,f
  2747  007BD0  2E01               	bra	u757
  2748  007BD2  D7FC               	decfsz	(??_cardDetected+0+0+1)&0ffh,c,f
  2749  007BD4  2E02               	bra	u757
  2750  007BD6  D7FA               	nop2
  2751  007BD8  D000               opt asmopt_pop
  2752                           
  2753                           	line	172
  2754                           ;main.c: 172:                 break;
  2755                           	goto	l75
  2756  007BDA  EFFD  F03F         	line	173
  2757                           ;main.c: 173:             case 4:
  2758                           	
  2759                           l97:
  2760  007BDE                     	line	174
  2761                           ;main.c: 174:                 PORTCbits.RC6 = 1;
  2762                           	bsf	((c:3970)),c,6	;volatile
  2763  007BDE  8C82               	line	175
  2764                           ;main.c: 175:                 PORTBbits.RB3 = 1;
  2765                           	bsf	((c:3969)),c,3	;volatile
  2766  007BE0  8681               	line	176
  2767                           	
  2768                           l932:
  2769  007BE2                     ;main.c: 176:                 _delay((unsigned long)((25*100)*(8000000/4000.0)));
  2770                           	opt asmopt_push
  2771                           opt asmopt_off
  2772                           movlw  26
  2773  007BE2  0E1A               movwf	(??_cardDetected+0+0+1)&0ffh,c,f
  2774  007BE4  6E02               movlw	94
  2775  007BE6  0E5E               movwf	(??_cardDetected+0+0)&0ffh,c,f
  2776  007BE8  6E01               	movlw	110
  2777  007BEA  0E6E               u767:
  2778  007BEC                     decfsz	wreg,f
  2779  007BEC  2EE8               	bra	u767
  2780  007BEE  D7FE               	decfsz	(??_cardDetected+0+0)&0ffh,c,f
  2781  007BF0  2E01               	bra	u767
  2782  007BF2  D7FC               	decfsz	(??_cardDetected+0+0+1)&0ffh,c,f
  2783  007BF4  2E02               	bra	u767
  2784  007BF6  D7FA               	nop2
  2785  007BF8  D000               opt asmopt_pop
  2786                           
  2787                           	line	177
  2788                           ;main.c: 177:                 break;
  2789                           	goto	l75
  2790  007BFA  EFFD  F03F         	line	178
  2791                           	
  2792                           l934:
  2793  007BFE                     ;main.c: 178:         }
  2794                           	goto	l75
  2795  007BFE  EFFD  F03F         	
  2796                           l92:
  2797  007C02                     	
  2798                           l936:
  2799  007C02                     	movff	(c:_option),??_cardDetected+0+0
  2800  007C02  C015  F001         	movff	(c:_option+1),??_cardDetected+0+0+1
  2801  007C06  C016  F002         	; Switch on 2 bytes has been partitioned into a top level switch of size 1, and 1 sub-s
                                 witches
  2802                           ; Switch size 1, requested type "space"
  2803                           ; Number of cases is 1, Range of values is 0 to 0
  2804                           ; switch strategies available:
  2805                           ; Name         Instructions Cycles
  2806                           ; simple_byte            4     3 (average)
  2807                           ;	Chosen strategy is simple_byte
  2808                           
  2809                           	movf ??_cardDetected+0+1,c,w
  2810  007C0A  5002               	xorlw	0^0	; case 0
  2811  007C0C  0A00               	skipnz
  2812  007C0E  B4D8               	goto	l1362
  2813  007C10  EF0C  F03E         	goto	l75
  2814  007C14  EFFD  F03F         	
  2815                           l1362:
  2816  007C18                     ; Switch size 1, requested type "space"
  2817                           ; Number of cases is 4, Range of values is 1 to 4
  2818                           ; switch strategies available:
  2819                           ; Name         Instructions Cycles
  2820                           ; simple_byte           13     7 (average)
  2821                           ;	Chosen strategy is simple_byte
  2822                           
  2823                           	movf ??_cardDetected+0+0,c,w
  2824  007C18  5001               	xorlw	1^0	; case 1
  2825  007C1A  0A01               	skipnz
  2826  007C1C  B4D8               	goto	l93
  2827  007C1E  EFCD  F03D         	xorlw	2^1	; case 2
  2828  007C22  0A03               	skipnz
  2829  007C24  B4D8               	goto	l75
  2830  007C26  EFFD  F03F         	xorlw	3^2	; case 3
  2831  007C2A  0A01               	skipnz
  2832  007C2C  B4D8               	goto	l96
  2833  007C2E  EFDF  F03D         	xorlw	4^3	; case 4
  2834  007C32  0A07               	skipnz
  2835  007C34  B4D8               	goto	l97
  2836  007C36  EFEF  F03D         	goto	l75
  2837  007C3A  EFFD  F03F         
  2838                           	
  2839                           l94:
  2840  007C3E                     	line	179
  2841                           ;main.c: 179:     }
  2842                           	goto	l75
  2843  007C3E  EFFD  F03F         	line	181
  2844                           ;main.c: 181:     else if(PORTAbits.RA0 == 1 && PORTAbits.RA1 == 0) {
  2845                           	
  2846                           l76:
  2847  007C42                     	btfss	((c:3968)),c,0	;volatile
  2848  007C42  A080               	goto	u171
  2849  007C44  EF26  F03E         	goto	u170
  2850  007C48  EF28  F03E         u171:
  2851  007C4C                     	goto	l99
  2852  007C4C  EF0D  F03F         u170:
  2853  007C50                     	
  2854                           l938:
  2855  007C50                     	btfsc	((c:3968)),c,1	;volatile
  2856  007C50  B280               	goto	u181
  2857  007C52  EF2D  F03E         	goto	u180
  2858  007C56  EF2F  F03E         u181:
  2859  007C5A                     	goto	l99
  2860  007C5A  EF0D  F03F         u180:
  2861  007C5E                     	goto	l950
  2862  007C5E  EF67  F03E         	line	182
  2863                           	
  2864                           l940:
  2865  007C62                     ;main.c: 182:         switch(option) {
  2866                           	goto	l950
  2867  007C62  EF67  F03E         	line	183
  2868                           ;main.c: 183:             case 1:
  2869                           	
  2870                           l101:
  2871  007C66                     	line	184
  2872                           ;main.c: 184:                 PORTBbits.RB6 = 1;
  2873                           	bsf	((c:3969)),c,6	;volatile
  2874  007C66  8C81               	line	185
  2875                           ;main.c: 185:                 PORTDbits.RD6 = 1;
  2876                           	bsf	((c:3971)),c,6	;volatile
  2877  007C68  8C83               	line	186
  2878                           	
  2879                           l942:
  2880  007C6A                     ;main.c: 186:                 _delay((unsigned long)((25*100)*(8000000/4000.0)));
  2881                           	opt asmopt_push
  2882                           opt asmopt_off
  2883                           movlw  26
  2884  007C6A  0E1A               movwf	(??_cardDetected+0+0+1)&0ffh,c,f
  2885  007C6C  6E02               movlw	94
  2886  007C6E  0E5E               movwf	(??_cardDetected+0+0)&0ffh,c,f
  2887  007C70  6E01               	movlw	110
  2888  007C72  0E6E               u777:
  2889  007C74                     decfsz	wreg,f
  2890  007C74  2EE8               	bra	u777
  2891  007C76  D7FE               	decfsz	(??_cardDetected+0+0)&0ffh,c,f
  2892  007C78  2E01               	bra	u777
  2893  007C7A  D7FC               	decfsz	(??_cardDetected+0+0+1)&0ffh,c,f
  2894  007C7C  2E02               	bra	u777
  2895  007C7E  D7FA               	nop2
  2896  007C80  D000               opt asmopt_pop
  2897                           
  2898                           	line	187
  2899                           ;main.c: 187:                 break;
  2900                           	goto	l952
  2901  007C82  EF85  F03E         	line	188
  2902                           ;main.c: 188:             case 2:
  2903                           	
  2904                           l103:
  2905  007C86                     	line	189
  2906                           ;main.c: 189:                 PORTBbits.RB3 = 1;
  2907                           	bsf	((c:3969)),c,3	;volatile
  2908  007C86  8681               	line	190
  2909                           ;main.c: 190:                 PORTDbits.RD6 = 1;
  2910                           	bsf	((c:3971)),c,6	;volatile
  2911  007C88  8C83               	line	191
  2912                           	
  2913                           l944:
  2914  007C8A                     ;main.c: 191:                 _delay((unsigned long)((25*100)*(8000000/4000.0)));
  2915                           	opt asmopt_push
  2916                           opt asmopt_off
  2917                           movlw  26
  2918  007C8A  0E1A               movwf	(??_cardDetected+0+0+1)&0ffh,c,f
  2919  007C8C  6E02               movlw	94
  2920  007C8E  0E5E               movwf	(??_cardDetected+0+0)&0ffh,c,f
  2921  007C90  6E01               	movlw	110
  2922  007C92  0E6E               u787:
  2923  007C94                     decfsz	wreg,f
  2924  007C94  2EE8               	bra	u787
  2925  007C96  D7FE               	decfsz	(??_cardDetected+0+0)&0ffh,c,f
  2926  007C98  2E01               	bra	u787
  2927  007C9A  D7FC               	decfsz	(??_cardDetected+0+0+1)&0ffh,c,f
  2928  007C9C  2E02               	bra	u787
  2929  007C9E  D7FA               	nop2
  2930  007CA0  D000               opt asmopt_pop
  2931                           
  2932                           	line	192
  2933                           ;main.c: 192:                 break;
  2934                           	goto	l952
  2935  007CA2  EF85  F03E         	line	193
  2936                           ;main.c: 193:             case 3:
  2937                           	
  2938                           l104:
  2939  007CA6                     	line	194
  2940                           ;main.c: 194:                 break;
  2941                           	goto	l952
  2942  007CA6  EF85  F03E         	line	195
  2943                           ;main.c: 195:             case 4:
  2944                           	
  2945                           l105:
  2946  007CAA                     	line	196
  2947                           ;main.c: 196:                 PORTCbits.RC6 = 1;
  2948                           	bsf	((c:3970)),c,6	;volatile
  2949  007CAA  8C82               	line	197
  2950                           ;main.c: 197:                 PORTDbits.RD6 = 1;
  2951                           	bsf	((c:3971)),c,6	;volatile
  2952  007CAC  8C83               	line	198
  2953                           	
  2954                           l946:
  2955  007CAE                     ;main.c: 198:                 _delay((unsigned long)((25*100)*(8000000/4000.0)));
  2956                           	opt asmopt_push
  2957                           opt asmopt_off
  2958                           movlw  26
  2959  007CAE  0E1A               movwf	(??_cardDetected+0+0+1)&0ffh,c,f
  2960  007CB0  6E02               movlw	94
  2961  007CB2  0E5E               movwf	(??_cardDetected+0+0)&0ffh,c,f
  2962  007CB4  6E01               	movlw	110
  2963  007CB6  0E6E               u797:
  2964  007CB8                     decfsz	wreg,f
  2965  007CB8  2EE8               	bra	u797
  2966  007CBA  D7FE               	decfsz	(??_cardDetected+0+0)&0ffh,c,f
  2967  007CBC  2E01               	bra	u797
  2968  007CBE  D7FC               	decfsz	(??_cardDetected+0+0+1)&0ffh,c,f
  2969  007CC0  2E02               	bra	u797
  2970  007CC2  D7FA               	nop2
  2971  007CC4  D000               opt asmopt_pop
  2972                           
  2973                           	line	199
  2974                           ;main.c: 199:                 break;
  2975                           	goto	l952
  2976  007CC6  EF85  F03E         	line	200
  2977                           	
  2978                           l948:
  2979  007CCA                     ;main.c: 200:         }
  2980                           	goto	l952
  2981  007CCA  EF85  F03E         	
  2982                           l100:
  2983  007CCE                     	
  2984                           l950:
  2985  007CCE                     	movff	(c:_option),??_cardDetected+0+0
  2986  007CCE  C015  F001         	movff	(c:_option+1),??_cardDetected+0+0+1
  2987  007CD2  C016  F002         	; Switch on 2 bytes has been partitioned into a top level switch of size 1, and 1 sub-s
                                 witches
  2988                           ; Switch size 1, requested type "space"
  2989                           ; Number of cases is 1, Range of values is 0 to 0
  2990                           ; switch strategies available:
  2991                           ; Name         Instructions Cycles
  2992                           ; simple_byte            4     3 (average)
  2993                           ;	Chosen strategy is simple_byte
  2994                           
  2995                           	movf ??_cardDetected+0+1,c,w
  2996  007CD6  5002               	xorlw	0^0	; case 0
  2997  007CD8  0A00               	skipnz
  2998  007CDA  B4D8               	goto	l1364
  2999  007CDC  EF72  F03E         	goto	l952
  3000  007CE0  EF85  F03E         	
  3001                           l1364:
  3002  007CE4                     ; Switch size 1, requested type "space"
  3003                           ; Number of cases is 4, Range of values is 1 to 4
  3004                           ; switch strategies available:
  3005                           ; Name         Instructions Cycles
  3006                           ; simple_byte           13     7 (average)
  3007                           ;	Chosen strategy is simple_byte
  3008                           
  3009                           	movf ??_cardDetected+0+0,c,w
  3010  007CE4  5001               	xorlw	1^0	; case 1
  3011  007CE6  0A01               	skipnz
  3012  007CE8  B4D8               	goto	l101
  3013  007CEA  EF33  F03E         	xorlw	2^1	; case 2
  3014  007CEE  0A03               	skipnz
  3015  007CF0  B4D8               	goto	l103
  3016  007CF2  EF43  F03E         	xorlw	3^2	; case 3
  3017  007CF6  0A01               	skipnz
  3018  007CF8  B4D8               	goto	l952
  3019  007CFA  EF85  F03E         	xorlw	4^3	; case 4
  3020  007CFE  0A07               	skipnz
  3021  007D00  B4D8               	goto	l105
  3022  007D02  EF55  F03E         	goto	l952
  3023  007D06  EF85  F03E         
  3024                           	
  3025                           l102:
  3026  007D0A                     	line	201
  3027                           	
  3028                           l952:
  3029  007D0A                     ;main.c: 201:         road3();
  3030                           	call	_road3	;wreg free
  3031  007D0A  ECD6  F039         	line	202
  3032                           ;main.c: 202:         while((PORTAbits.RA0 == 0 && PORTAbits.RA1 == 1) || (PORTAbits.RA0
                                  == 0 && PORTAbits.RA1 == 0) || (PORTAbits.RA0 == 1 && PORTAbits.RA1 == 1));
  3033                           	goto	l106
  3034  007D0E  EF89  F03E         	
  3035                           l107:
  3036  007D12                     	
  3037                           l106:
  3038  007D12                     	btfsc	((c:3968)),c,0	;volatile
  3039  007D12  B080               	goto	u191
  3040  007D14  EF8E  F03E         	goto	u190
  3041  007D18  EF90  F03E         u191:
  3042  007D1C                     	goto	l109
  3043  007D1C  EF97  F03E         u190:
  3044  007D20                     	
  3045                           l954:
  3046  007D20                     	btfsc	((c:3968)),c,1	;volatile
  3047  007D20  B280               	goto	u201
  3048  007D22  EF95  F03E         	goto	u200
  3049  007D26  EF97  F03E         u201:
  3050  007D2A                     	goto	l106
  3051  007D2A  EF89  F03E         u200:
  3052  007D2E                     	
  3053                           l109:
  3054  007D2E                     	btfsc	((c:3968)),c,0	;volatile
  3055  007D2E  B080               	goto	u211
  3056  007D30  EF9C  F03E         	goto	u210
  3057  007D34  EF9E  F03E         u211:
  3058  007D38                     	goto	l111
  3059  007D38  EFA5  F03E         u210:
  3060  007D3C                     	
  3061                           l956:
  3062  007D3C                     	btfss	((c:3968)),c,1	;volatile
  3063  007D3C  A280               	goto	u221
  3064  007D3E  EFA3  F03E         	goto	u220
  3065  007D42  EFA5  F03E         u221:
  3066  007D46                     	goto	l106
  3067  007D46  EF89  F03E         u220:
  3068  007D4A                     	
  3069                           l111:
  3070  007D4A                     	btfss	((c:3968)),c,0	;volatile
  3071  007D4A  A080               	goto	u231
  3072  007D4C  EFAA  F03E         	goto	u230
  3073  007D50  EFAC  F03E         u231:
  3074  007D54                     	goto	l968
  3075  007D54  EFED  F03E         u230:
  3076  007D58                     	
  3077                           l958:
  3078  007D58                     	btfsc	((c:3968)),c,1	;volatile
  3079  007D58  B280               	goto	u241
  3080  007D5A  EFB1  F03E         	goto	u240
  3081  007D5E  EFB3  F03E         u241:
  3082  007D62                     	goto	l106
  3083  007D62  EF89  F03E         u240:
  3084  007D66                     	goto	l968
  3085  007D66  EFED  F03E         	
  3086                           l113:
  3087  007D6A                     	goto	l968
  3088  007D6A  EFED  F03E         	
  3089                           l114:
  3090  007D6E                     	line	203
  3091                           ;main.c: 203:         switch(option) {
  3092                           	goto	l968
  3093  007D6E  EFED  F03E         	line	204
  3094                           ;main.c: 204:             case 1:
  3095                           	
  3096                           l116:
  3097  007D72                     	line	205
  3098                           ;main.c: 205:                 PORTBbits.RB6 = 1;
  3099                           	bsf	((c:3969)),c,6	;volatile
  3100  007D72  8C81               	line	206
  3101                           ;main.c: 206:                 PORTDbits.RD6 = 1;
  3102                           	bsf	((c:3971)),c,6	;volatile
  3103  007D74  8C83               	line	207
  3104                           	
  3105                           l960:
  3106  007D76                     ;main.c: 207:                 _delay((unsigned long)((25*100)*(8000000/4000.0)));
  3107                           	opt asmopt_push
  3108                           opt asmopt_off
  3109                           movlw  26
  3110  007D76  0E1A               movwf	(??_cardDetected+0+0+1)&0ffh,c,f
  3111  007D78  6E02               movlw	94
  3112  007D7A  0E5E               movwf	(??_cardDetected+0+0)&0ffh,c,f
  3113  007D7C  6E01               	movlw	110
  3114  007D7E  0E6E               u807:
  3115  007D80                     decfsz	wreg,f
  3116  007D80  2EE8               	bra	u807
  3117  007D82  D7FE               	decfsz	(??_cardDetected+0+0)&0ffh,c,f
  3118  007D84  2E01               	bra	u807
  3119  007D86  D7FC               	decfsz	(??_cardDetected+0+0+1)&0ffh,c,f
  3120  007D88  2E02               	bra	u807
  3121  007D8A  D7FA               	nop2
  3122  007D8C  D000               opt asmopt_pop
  3123                           
  3124                           	line	208
  3125                           ;main.c: 208:                 break;
  3126                           	goto	l75
  3127  007D8E  EFFD  F03F         	line	209
  3128                           ;main.c: 209:             case 2:
  3129                           	
  3130                           l118:
  3131  007D92                     	line	210
  3132                           ;main.c: 210:                 PORTBbits.RB3 = 1;
  3133                           	bsf	((c:3969)),c,3	;volatile
  3134  007D92  8681               	line	211
  3135                           ;main.c: 211:                 PORTDbits.RD6 = 1;
  3136                           	bsf	((c:3971)),c,6	;volatile
  3137  007D94  8C83               	line	212
  3138                           	
  3139                           l962:
  3140  007D96                     ;main.c: 212:                 _delay((unsigned long)((25*100)*(8000000/4000.0)));
  3141                           	opt asmopt_push
  3142                           opt asmopt_off
  3143                           movlw  26
  3144  007D96  0E1A               movwf	(??_cardDetected+0+0+1)&0ffh,c,f
  3145  007D98  6E02               movlw	94
  3146  007D9A  0E5E               movwf	(??_cardDetected+0+0)&0ffh,c,f
  3147  007D9C  6E01               	movlw	110
  3148  007D9E  0E6E               u817:
  3149  007DA0                     decfsz	wreg,f
  3150  007DA0  2EE8               	bra	u817
  3151  007DA2  D7FE               	decfsz	(??_cardDetected+0+0)&0ffh,c,f
  3152  007DA4  2E01               	bra	u817
  3153  007DA6  D7FC               	decfsz	(??_cardDetected+0+0+1)&0ffh,c,f
  3154  007DA8  2E02               	bra	u817
  3155  007DAA  D7FA               	nop2
  3156  007DAC  D000               opt asmopt_pop
  3157                           
  3158                           	line	213
  3159                           ;main.c: 213:                 break;
  3160                           	goto	l75
  3161  007DAE  EFFD  F03F         	line	214
  3162                           ;main.c: 214:             case 3:
  3163                           	
  3164                           l119:
  3165  007DB2                     	line	215
  3166                           ;main.c: 215:                 break;
  3167                           	goto	l75
  3168  007DB2  EFFD  F03F         	line	216
  3169                           ;main.c: 216:             case 4:
  3170                           	
  3171                           l120:
  3172  007DB6                     	line	217
  3173                           ;main.c: 217:                 PORTCbits.RC6 = 1;
  3174                           	bsf	((c:3970)),c,6	;volatile
  3175  007DB6  8C82               	line	218
  3176                           ;main.c: 218:                 PORTDbits.RD6 = 1;
  3177                           	bsf	((c:3971)),c,6	;volatile
  3178  007DB8  8C83               	line	219
  3179                           	
  3180                           l964:
  3181  007DBA                     ;main.c: 219:                 _delay((unsigned long)((25*100)*(8000000/4000.0)));
  3182                           	opt asmopt_push
  3183                           opt asmopt_off
  3184                           movlw  26
  3185  007DBA  0E1A               movwf	(??_cardDetected+0+0+1)&0ffh,c,f
  3186  007DBC  6E02               movlw	94
  3187  007DBE  0E5E               movwf	(??_cardDetected+0+0)&0ffh,c,f
  3188  007DC0  6E01               	movlw	110
  3189  007DC2  0E6E               u827:
  3190  007DC4                     decfsz	wreg,f
  3191  007DC4  2EE8               	bra	u827
  3192  007DC6  D7FE               	decfsz	(??_cardDetected+0+0)&0ffh,c,f
  3193  007DC8  2E01               	bra	u827
  3194  007DCA  D7FC               	decfsz	(??_cardDetected+0+0+1)&0ffh,c,f
  3195  007DCC  2E02               	bra	u827
  3196  007DCE  D7FA               	nop2
  3197  007DD0  D000               opt asmopt_pop
  3198                           
  3199                           	line	220
  3200                           ;main.c: 220:                 break;
  3201                           	goto	l75
  3202  007DD2  EFFD  F03F         	line	221
  3203                           	
  3204                           l966:
  3205  007DD6                     ;main.c: 221:         }
  3206                           	goto	l75
  3207  007DD6  EFFD  F03F         	
  3208                           l115:
  3209  007DDA                     	
  3210                           l968:
  3211  007DDA                     	movff	(c:_option),??_cardDetected+0+0
  3212  007DDA  C015  F001         	movff	(c:_option+1),??_cardDetected+0+0+1
  3213  007DDE  C016  F002         	; Switch on 2 bytes has been partitioned into a top level switch of size 1, and 1 sub-s
                                 witches
  3214                           ; Switch size 1, requested type "space"
  3215                           ; Number of cases is 1, Range of values is 0 to 0
  3216                           ; switch strategies available:
  3217                           ; Name         Instructions Cycles
  3218                           ; simple_byte            4     3 (average)
  3219                           ;	Chosen strategy is simple_byte
  3220                           
  3221                           	movf ??_cardDetected+0+1,c,w
  3222  007DE2  5002               	xorlw	0^0	; case 0
  3223  007DE4  0A00               	skipnz
  3224  007DE6  B4D8               	goto	l1366
  3225  007DE8  EFF8  F03E         	goto	l75
  3226  007DEC  EFFD  F03F         	
  3227                           l1366:
  3228  007DF0                     ; Switch size 1, requested type "space"
  3229                           ; Number of cases is 4, Range of values is 1 to 4
  3230                           ; switch strategies available:
  3231                           ; Name         Instructions Cycles
  3232                           ; simple_byte           13     7 (average)
  3233                           ;	Chosen strategy is simple_byte
  3234                           
  3235                           	movf ??_cardDetected+0+0,c,w
  3236  007DF0  5001               	xorlw	1^0	; case 1
  3237  007DF2  0A01               	skipnz
  3238  007DF4  B4D8               	goto	l116
  3239  007DF6  EFB9  F03E         	xorlw	2^1	; case 2
  3240  007DFA  0A03               	skipnz
  3241  007DFC  B4D8               	goto	l118
  3242  007DFE  EFC9  F03E         	xorlw	3^2	; case 3
  3243  007E02  0A01               	skipnz
  3244  007E04  B4D8               	goto	l75
  3245  007E06  EFFD  F03F         	xorlw	4^3	; case 4
  3246  007E0A  0A07               	skipnz
  3247  007E0C  B4D8               	goto	l120
  3248  007E0E  EFDB  F03E         	goto	l75
  3249  007E12  EFFD  F03F         
  3250                           	
  3251                           l117:
  3252  007E16                     	line	222
  3253                           ;main.c: 222:     }
  3254                           	goto	l75
  3255  007E16  EFFD  F03F         	line	224
  3256                           ;main.c: 224:     else if(PORTAbits.RA0 == 1 && PORTAbits.RA1 == 1) {
  3257                           	
  3258                           l99:
  3259  007E1A                     	btfss	((c:3968)),c,0	;volatile
  3260  007E1A  A080               	goto	u251
  3261  007E1C  EF12  F03F         	goto	u250
  3262  007E20  EF14  F03F         u251:
  3263  007E24                     	goto	l75
  3264  007E24  EFFD  F03F         u250:
  3265  007E28                     	
  3266                           l970:
  3267  007E28                     	btfss	((c:3968)),c,1	;volatile
  3268  007E28  A280               	goto	u261
  3269  007E2A  EF19  F03F         	goto	u260
  3270  007E2E  EF1B  F03F         u261:
  3271  007E32                     	goto	l75
  3272  007E32  EFFD  F03F         u260:
  3273  007E36                     	goto	l982
  3274  007E36  EF53  F03F         	line	225
  3275                           	
  3276                           l972:
  3277  007E3A                     ;main.c: 225:         switch(option) {
  3278                           	goto	l982
  3279  007E3A  EF53  F03F         	line	226
  3280                           ;main.c: 226:             case 1:
  3281                           	
  3282                           l124:
  3283  007E3E                     	line	227
  3284                           ;main.c: 227:                 PORTBbits.RB6 = 1;
  3285                           	bsf	((c:3969)),c,6	;volatile
  3286  007E3E  8C81               	line	228
  3287                           ;main.c: 228:                 PORTCbits.RC6 = 1;
  3288                           	bsf	((c:3970)),c,6	;volatile
  3289  007E40  8C82               	line	229
  3290                           	
  3291                           l974:
  3292  007E42                     ;main.c: 229:                 _delay((unsigned long)((25*100)*(8000000/4000.0)));
  3293                           	opt asmopt_push
  3294                           opt asmopt_off
  3295                           movlw  26
  3296  007E42  0E1A               movwf	(??_cardDetected+0+0+1)&0ffh,c,f
  3297  007E44  6E02               movlw	94
  3298  007E46  0E5E               movwf	(??_cardDetected+0+0)&0ffh,c,f
  3299  007E48  6E01               	movlw	110
  3300  007E4A  0E6E               u837:
  3301  007E4C                     decfsz	wreg,f
  3302  007E4C  2EE8               	bra	u837
  3303  007E4E  D7FE               	decfsz	(??_cardDetected+0+0)&0ffh,c,f
  3304  007E50  2E01               	bra	u837
  3305  007E52  D7FC               	decfsz	(??_cardDetected+0+0+1)&0ffh,c,f
  3306  007E54  2E02               	bra	u837
  3307  007E56  D7FA               	nop2
  3308  007E58  D000               opt asmopt_pop
  3309                           
  3310                           	line	230
  3311                           ;main.c: 230:                 break;
  3312                           	goto	l984
  3313  007E5A  EF71  F03F         	line	231
  3314                           ;main.c: 231:             case 2:
  3315                           	
  3316                           l126:
  3317  007E5E                     	line	232
  3318                           ;main.c: 232:                 PORTBbits.RB3 = 1;
  3319                           	bsf	((c:3969)),c,3	;volatile
  3320  007E5E  8681               	line	233
  3321                           ;main.c: 233:                 PORTCbits.RC6 = 1;
  3322                           	bsf	((c:3970)),c,6	;volatile
  3323  007E60  8C82               	line	234
  3324                           	
  3325                           l976:
  3326  007E62                     ;main.c: 234:                 _delay((unsigned long)((25*100)*(8000000/4000.0)));
  3327                           	opt asmopt_push
  3328                           opt asmopt_off
  3329                           movlw  26
  3330  007E62  0E1A               movwf	(??_cardDetected+0+0+1)&0ffh,c,f
  3331  007E64  6E02               movlw	94
  3332  007E66  0E5E               movwf	(??_cardDetected+0+0)&0ffh,c,f
  3333  007E68  6E01               	movlw	110
  3334  007E6A  0E6E               u847:
  3335  007E6C                     decfsz	wreg,f
  3336  007E6C  2EE8               	bra	u847
  3337  007E6E  D7FE               	decfsz	(??_cardDetected+0+0)&0ffh,c,f
  3338  007E70  2E01               	bra	u847
  3339  007E72  D7FC               	decfsz	(??_cardDetected+0+0+1)&0ffh,c,f
  3340  007E74  2E02               	bra	u847
  3341  007E76  D7FA               	nop2
  3342  007E78  D000               opt asmopt_pop
  3343                           
  3344                           	line	235
  3345                           ;main.c: 235:                 break;
  3346                           	goto	l984
  3347  007E7A  EF71  F03F         	line	236
  3348                           ;main.c: 236:             case 3:
  3349                           	
  3350                           l127:
  3351  007E7E                     	line	237
  3352                           ;main.c: 237:                 PORTDbits.RD6 = 1;
  3353                           	bsf	((c:3971)),c,6	;volatile
  3354  007E7E  8C83               	line	238
  3355                           ;main.c: 238:                 PORTCbits.RC6 = 1;
  3356                           	bsf	((c:3970)),c,6	;volatile
  3357  007E80  8C82               	line	239
  3358                           	
  3359                           l978:
  3360  007E82                     ;main.c: 239:                 _delay((unsigned long)((25*100)*(8000000/4000.0)));
  3361                           	opt asmopt_push
  3362                           opt asmopt_off
  3363                           movlw  26
  3364  007E82  0E1A               movwf	(??_cardDetected+0+0+1)&0ffh,c,f
  3365  007E84  6E02               movlw	94
  3366  007E86  0E5E               movwf	(??_cardDetected+0+0)&0ffh,c,f
  3367  007E88  6E01               	movlw	110
  3368  007E8A  0E6E               u857:
  3369  007E8C                     decfsz	wreg,f
  3370  007E8C  2EE8               	bra	u857
  3371  007E8E  D7FE               	decfsz	(??_cardDetected+0+0)&0ffh,c,f
  3372  007E90  2E01               	bra	u857
  3373  007E92  D7FC               	decfsz	(??_cardDetected+0+0+1)&0ffh,c,f
  3374  007E94  2E02               	bra	u857
  3375  007E96  D7FA               	nop2
  3376  007E98  D000               opt asmopt_pop
  3377                           
  3378                           	line	240
  3379                           ;main.c: 240:                 break;
  3380                           	goto	l984
  3381  007E9A  EF71  F03F         	line	241
  3382                           ;main.c: 241:             case 4:
  3383                           	
  3384                           l128:
  3385  007E9E                     	line	242
  3386                           ;main.c: 242:                 break;
  3387                           	goto	l984
  3388  007E9E  EF71  F03F         	line	243
  3389                           	
  3390                           l980:
  3391  007EA2                     ;main.c: 243:         }
  3392                           	goto	l984
  3393  007EA2  EF71  F03F         	
  3394                           l123:
  3395  007EA6                     	
  3396                           l982:
  3397  007EA6                     	movff	(c:_option),??_cardDetected+0+0
  3398  007EA6  C015  F001         	movff	(c:_option+1),??_cardDetected+0+0+1
  3399  007EAA  C016  F002         	; Switch on 2 bytes has been partitioned into a top level switch of size 1, and 1 sub-s
                                 witches
  3400                           ; Switch size 1, requested type "space"
  3401                           ; Number of cases is 1, Range of values is 0 to 0
  3402                           ; switch strategies available:
  3403                           ; Name         Instructions Cycles
  3404                           ; simple_byte            4     3 (average)
  3405                           ;	Chosen strategy is simple_byte
  3406                           
  3407                           	movf ??_cardDetected+0+1,c,w
  3408  007EAE  5002               	xorlw	0^0	; case 0
  3409  007EB0  0A00               	skipnz
  3410  007EB2  B4D8               	goto	l1368
  3411  007EB4  EF5E  F03F         	goto	l984
  3412  007EB8  EF71  F03F         	
  3413                           l1368:
  3414  007EBC                     ; Switch size 1, requested type "space"
  3415                           ; Number of cases is 4, Range of values is 1 to 4
  3416                           ; switch strategies available:
  3417                           ; Name         Instructions Cycles
  3418                           ; simple_byte           13     7 (average)
  3419                           ;	Chosen strategy is simple_byte
  3420                           
  3421                           	movf ??_cardDetected+0+0,c,w
  3422  007EBC  5001               	xorlw	1^0	; case 1
  3423  007EBE  0A01               	skipnz
  3424  007EC0  B4D8               	goto	l124
  3425  007EC2  EF1F  F03F         	xorlw	2^1	; case 2
  3426  007EC6  0A03               	skipnz
  3427  007EC8  B4D8               	goto	l126
  3428  007ECA  EF2F  F03F         	xorlw	3^2	; case 3
  3429  007ECE  0A01               	skipnz
  3430  007ED0  B4D8               	goto	l127
  3431  007ED2  EF3F  F03F         	xorlw	4^3	; case 4
  3432  007ED6  0A07               	skipnz
  3433  007ED8  B4D8               	goto	l984
  3434  007EDA  EF71  F03F         	goto	l984
  3435  007EDE  EF71  F03F         
  3436                           	
  3437                           l125:
  3438  007EE2                     	line	244
  3439                           	
  3440                           l984:
  3441  007EE2                     ;main.c: 244:         road4();
  3442                           	call	_road4	;wreg free
  3443  007EE2  ECE3  F039         	line	245
  3444                           ;main.c: 245:         while((PORTAbits.RA0 == 0 && PORTAbits.RA1 == 1) || (PORTAbits.RA0
                                  == 1 && PORTAbits.RA1 == 0) || (PORTAbits.RA0 == 0 && PORTAbits.RA1 == 0));
  3445                           	goto	l129
  3446  007EE6  EF75  F03F         	
  3447                           l130:
  3448  007EEA                     	
  3449                           l129:
  3450  007EEA                     	btfsc	((c:3968)),c,0	;volatile
  3451  007EEA  B080               	goto	u271
  3452  007EEC  EF7A  F03F         	goto	u270
  3453  007EF0  EF7C  F03F         u271:
  3454  007EF4                     	goto	l132
  3455  007EF4  EF83  F03F         u270:
  3456  007EF8                     	
  3457                           l986:
  3458  007EF8                     	btfsc	((c:3968)),c,1	;volatile
  3459  007EF8  B280               	goto	u281
  3460  007EFA  EF81  F03F         	goto	u280
  3461  007EFE  EF83  F03F         u281:
  3462  007F02                     	goto	l129
  3463  007F02  EF75  F03F         u280:
  3464  007F06                     	
  3465                           l132:
  3466  007F06                     	btfss	((c:3968)),c,0	;volatile
  3467  007F06  A080               	goto	u291
  3468  007F08  EF88  F03F         	goto	u290
  3469  007F0C  EF8A  F03F         u291:
  3470  007F10                     	goto	l134
  3471  007F10  EF91  F03F         u290:
  3472  007F14                     	
  3473                           l988:
  3474  007F14                     	btfss	((c:3968)),c,1	;volatile
  3475  007F14  A280               	goto	u301
  3476  007F16  EF8F  F03F         	goto	u300
  3477  007F1A  EF91  F03F         u301:
  3478  007F1E                     	goto	l129
  3479  007F1E  EF75  F03F         u300:
  3480  007F22                     	
  3481                           l134:
  3482  007F22                     	btfsc	((c:3968)),c,0	;volatile
  3483  007F22  B080               	goto	u311
  3484  007F24  EF96  F03F         	goto	u310
  3485  007F28  EF98  F03F         u311:
  3486  007F2C                     	goto	l1000
  3487  007F2C  EFD9  F03F         u310:
  3488  007F30                     	
  3489                           l990:
  3490  007F30                     	btfss	((c:3968)),c,1	;volatile
  3491  007F30  A280               	goto	u321
  3492  007F32  EF9D  F03F         	goto	u320
  3493  007F36  EF9F  F03F         u321:
  3494  007F3A                     	goto	l129
  3495  007F3A  EF75  F03F         u320:
  3496  007F3E                     	goto	l1000
  3497  007F3E  EFD9  F03F         	
  3498                           l136:
  3499  007F42                     	goto	l1000
  3500  007F42  EFD9  F03F         	
  3501                           l137:
  3502  007F46                     	line	246
  3503                           ;main.c: 246:         switch(option) {
  3504                           	goto	l1000
  3505  007F46  EFD9  F03F         	line	247
  3506                           ;main.c: 247:             case 1:
  3507                           	
  3508                           l139:
  3509  007F4A                     	line	248
  3510                           ;main.c: 248:                 PORTBbits.RB6 = 1;
  3511                           	bsf	((c:3969)),c,6	;volatile
  3512  007F4A  8C81               	line	249
  3513                           ;main.c: 249:                 PORTCbits.RC6 = 1;
  3514                           	bsf	((c:3970)),c,6	;volatile
  3515  007F4C  8C82               	line	250
  3516                           	
  3517                           l992:
  3518  007F4E                     ;main.c: 250:                 _delay((unsigned long)((25*100)*(8000000/4000.0)));
  3519                           	opt asmopt_push
  3520                           opt asmopt_off
  3521                           movlw  26
  3522  007F4E  0E1A               movwf	(??_cardDetected+0+0+1)&0ffh,c,f
  3523  007F50  6E02               movlw	94
  3524  007F52  0E5E               movwf	(??_cardDetected+0+0)&0ffh,c,f
  3525  007F54  6E01               	movlw	110
  3526  007F56  0E6E               u867:
  3527  007F58                     decfsz	wreg,f
  3528  007F58  2EE8               	bra	u867
  3529  007F5A  D7FE               	decfsz	(??_cardDetected+0+0)&0ffh,c,f
  3530  007F5C  2E01               	bra	u867
  3531  007F5E  D7FC               	decfsz	(??_cardDetected+0+0+1)&0ffh,c,f
  3532  007F60  2E02               	bra	u867
  3533  007F62  D7FA               	nop2
  3534  007F64  D000               opt asmopt_pop
  3535                           
  3536                           	line	251
  3537                           ;main.c: 251:                 break;
  3538                           	goto	l75
  3539  007F66  EFFD  F03F         	line	252
  3540                           ;main.c: 252:             case 2:
  3541                           	
  3542                           l141:
  3543  007F6A                     	line	253
  3544                           ;main.c: 253:                 PORTBbits.RB3 = 1;
  3545                           	bsf	((c:3969)),c,3	;volatile
  3546  007F6A  8681               	line	254
  3547                           ;main.c: 254:                 PORTCbits.RC6 = 1;
  3548                           	bsf	((c:3970)),c,6	;volatile
  3549  007F6C  8C82               	line	255
  3550                           	
  3551                           l994:
  3552  007F6E                     ;main.c: 255:                 _delay((unsigned long)((25*100)*(8000000/4000.0)));
  3553                           	opt asmopt_push
  3554                           opt asmopt_off
  3555                           movlw  26
  3556  007F6E  0E1A               movwf	(??_cardDetected+0+0+1)&0ffh,c,f
  3557  007F70  6E02               movlw	94
  3558  007F72  0E5E               movwf	(??_cardDetected+0+0)&0ffh,c,f
  3559  007F74  6E01               	movlw	110
  3560  007F76  0E6E               u877:
  3561  007F78                     decfsz	wreg,f
  3562  007F78  2EE8               	bra	u877
  3563  007F7A  D7FE               	decfsz	(??_cardDetected+0+0)&0ffh,c,f
  3564  007F7C  2E01               	bra	u877
  3565  007F7E  D7FC               	decfsz	(??_cardDetected+0+0+1)&0ffh,c,f
  3566  007F80  2E02               	bra	u877
  3567  007F82  D7FA               	nop2
  3568  007F84  D000               opt asmopt_pop
  3569                           
  3570                           	line	256
  3571                           ;main.c: 256:                 break;
  3572                           	goto	l75
  3573  007F86  EFFD  F03F         	line	257
  3574                           ;main.c: 257:             case 3:
  3575                           	
  3576                           l142:
  3577  007F8A                     	line	258
  3578                           ;main.c: 258:                 PORTDbits.RD6 = 1;
  3579                           	bsf	((c:3971)),c,6	;volatile
  3580  007F8A  8C83               	line	259
  3581                           ;main.c: 259:                 PORTCbits.RC6 = 1;
  3582                           	bsf	((c:3970)),c,6	;volatile
  3583  007F8C  8C82               	line	260
  3584                           	
  3585                           l996:
  3586  007F8E                     ;main.c: 260:                 _delay((unsigned long)((25*100)*(8000000/4000.0)));
  3587                           	opt asmopt_push
  3588                           opt asmopt_off
  3589                           movlw  26
  3590  007F8E  0E1A               movwf	(??_cardDetected+0+0+1)&0ffh,c,f
  3591  007F90  6E02               movlw	94
  3592  007F92  0E5E               movwf	(??_cardDetected+0+0)&0ffh,c,f
  3593  007F94  6E01               	movlw	110
  3594  007F96  0E6E               u887:
  3595  007F98                     decfsz	wreg,f
  3596  007F98  2EE8               	bra	u887
  3597  007F9A  D7FE               	decfsz	(??_cardDetected+0+0)&0ffh,c,f
  3598  007F9C  2E01               	bra	u887
  3599  007F9E  D7FC               	decfsz	(??_cardDetected+0+0+1)&0ffh,c,f
  3600  007FA0  2E02               	bra	u887
  3601  007FA2  D7FA               	nop2
  3602  007FA4  D000               opt asmopt_pop
  3603                           
  3604                           	line	261
  3605                           ;main.c: 261:                 break;
  3606                           	goto	l75
  3607  007FA6  EFFD  F03F         	line	262
  3608                           ;main.c: 262:             case 4:
  3609                           	
  3610                           l143:
  3611  007FAA                     	line	263
  3612                           ;main.c: 263:                 break;
  3613                           	goto	l75
  3614  007FAA  EFFD  F03F         	line	264
  3615                           	
  3616                           l998:
  3617  007FAE                     ;main.c: 264:         }
  3618                           	goto	l75
  3619  007FAE  EFFD  F03F         	
  3620                           l138:
  3621  007FB2                     	
  3622                           l1000:
  3623  007FB2                     	movff	(c:_option),??_cardDetected+0+0
  3624  007FB2  C015  F001         	movff	(c:_option+1),??_cardDetected+0+0+1
  3625  007FB6  C016  F002         	; Switch on 2 bytes has been partitioned into a top level switch of size 1, and 1 sub-s
                                 witches
  3626                           ; Switch size 1, requested type "space"
  3627                           ; Number of cases is 1, Range of values is 0 to 0
  3628                           ; switch strategies available:
  3629                           ; Name         Instructions Cycles
  3630                           ; simple_byte            4     3 (average)
  3631                           ;	Chosen strategy is simple_byte
  3632                           
  3633                           	movf ??_cardDetected+0+1,c,w
  3634  007FBA  5002               	xorlw	0^0	; case 0
  3635  007FBC  0A00               	skipnz
  3636  007FBE  B4D8               	goto	l1370
  3637  007FC0  EFE4  F03F         	goto	l75
  3638  007FC4  EFFD  F03F         	
  3639                           l1370:
  3640  007FC8                     ; Switch size 1, requested type "space"
  3641                           ; Number of cases is 4, Range of values is 1 to 4
  3642                           ; switch strategies available:
  3643                           ; Name         Instructions Cycles
  3644                           ; simple_byte           13     7 (average)
  3645                           ;	Chosen strategy is simple_byte
  3646                           
  3647                           	movf ??_cardDetected+0+0,c,w
  3648  007FC8  5001               	xorlw	1^0	; case 1
  3649  007FCA  0A01               	skipnz
  3650  007FCC  B4D8               	goto	l139
  3651  007FCE  EFA5  F03F         	xorlw	2^1	; case 2
  3652  007FD2  0A03               	skipnz
  3653  007FD4  B4D8               	goto	l141
  3654  007FD6  EFB5  F03F         	xorlw	3^2	; case 3
  3655  007FDA  0A01               	skipnz
  3656  007FDC  B4D8               	goto	l142
  3657  007FDE  EFC5  F03F         	xorlw	4^3	; case 4
  3658  007FE2  0A07               	skipnz
  3659  007FE4  B4D8               	goto	l75
  3660  007FE6  EFFD  F03F         	goto	l75
  3661  007FEA  EFFD  F03F         
  3662                           	
  3663                           l140:
  3664  007FEE                     	goto	l75
  3665  007FEE  EFFD  F03F         	line	265
  3666                           ;main.c: 265:     }
  3667                           	
  3668                           l122:
  3669  007FF2                     	goto	l75
  3670  007FF2  EFFD  F03F         	
  3671                           l121:
  3672  007FF6                     	goto	l75
  3673  007FF6  EFFD  F03F         	
  3674                           l98:
  3675  007FFA                     	
  3676                           l75:
  3677  007FFA                     	line	266
  3678                           ;main.c: 266:     INTCONbits.INT0IF = 0;
  3679                           	bcf	((c:4082)),c,1	;volatile
  3680  007FFA  92F2               	line	267
  3681                           ;main.c: 267:     INTCONbits.GIE = 0 ;
  3682                           	bcf	((c:4082)),c,7	;volatile
  3683  007FFC  9EF2               	line	268
  3684                           	
  3685                           l144:
  3686  007FFE                     	return	;funcret
  3687  007FFE  0012               	opt stack 0
  3688                           GLOBAL	__end_of_cardDetected
  3689                           	__end_of_cardDetected:
  3690  008000                     	signat	_cardDetected,89
  3691                           	global	_road4
  3692                           
  3693 ;; *************** function _road4 *****************
  3694 ;; Defined at:
  3695 ;;		line 446 in file "main.c"
  3696 ;; Parameters:    Size  Location     Type
  3697 ;;		None
  3698 ;; Auto vars:     Size  Location     Type
  3699 ;;		None
  3700 ;; Return value:  Size  Location     Type
  3701 ;;                  1    wreg      void 
  3702 ;; Registers used:
  3703 ;;		None
  3704 ;; Tracked objects:
  3705 ;;		On entry : 0/0
  3706 ;;		On exit  : 0/0
  3707 ;;		Unchanged: 0/0
  3708 ;; Data sizes:     COMRAM   BANK0   BANK1   BANK2   BANK3   BANK4   BANK5
  3709 ;;      Params:         0       0       0       0       0       0       0
  3710 ;;      Locals:         0       0       0       0       0       0       0
  3711 ;;      Temps:          0       0       0       0       0       0       0
  3712 ;;      Totals:         0       0       0       0       0       0       0
  3713 ;;Total ram usage:        0 bytes
  3714 ;; Hardware stack levels used:    1
  3715 ;; This function calls:
  3716 ;;		Nothing
  3717 ;; This function is called by:
  3718 ;;		_cardDetected
  3719 ;;		_main
  3720 ;; This function uses a non-reentrant model
  3721 ;;
  3722                           psect	text2,class=CODE,space=0,reloc=2,group=0
  3723                           	line	446
  3724                           global __ptext2
  3725                           __ptext2:
  3726  0073C6                     psect	text2
  3727                           	file	"main.c"
  3728                           	line	446
  3729                           	global	__size_of_road4
  3730                           	__size_of_road4	equ	__end_of_road4-_road4
  3731  0000                     	
  3732                           _road4:
  3733  0073C6                     ;incstack = 0
  3734                           	opt	stack 30
  3735                           	line	447
  3736                           	
  3737                           l870:
  3738  0073C6                     ;main.c: 447:     PORTBbits.RB7 = 1;
  3739                           	bsf	((c:3969)),c,7	;volatile
  3740  0073C6  8E81               	line	448
  3741                           ;main.c: 448:     PORTBbits.RB6 = 0;
  3742                           	bcf	((c:3969)),c,6	;volatile
  3743  0073C8  9C81               	line	449
  3744                           ;main.c: 449:     PORTBbits.RB5 = 0;
  3745                           	bcf	((c:3969)),c,5	;volatile
  3746  0073CA  9A81               	line	451
  3747                           ;main.c: 451:     PORTBbits.RB4 = 1;
  3748                           	bsf	((c:3969)),c,4	;volatile
  3749  0073CC  8881               	line	452
  3750                           ;main.c: 452:     PORTBbits.RB3 = 0;
  3751                           	bcf	((c:3969)),c,3	;volatile
  3752  0073CE  9681               	line	453
  3753                           ;main.c: 453:     PORTBbits.RB2 = 0;
  3754                           	bcf	((c:3969)),c,2	;volatile
  3755  0073D0  9481               	line	455
  3756                           ;main.c: 455:     PORTDbits.RD7 = 1;
  3757                           	bsf	((c:3971)),c,7	;volatile
  3758  0073D2  8E83               	line	456
  3759                           ;main.c: 456:     PORTDbits.RD6 = 0;
  3760                           	bcf	((c:3971)),c,6	;volatile
  3761  0073D4  9C83               	line	457
  3762                           ;main.c: 457:     PORTDbits.RD4 = 0;
  3763                           	bcf	((c:3971)),c,4	;volatile
  3764  0073D6  9883               	line	459
  3765                           ;main.c: 459:     PORTCbits.RC7 = 0;
  3766                           	bcf	((c:3970)),c,7	;volatile
  3767  0073D8  9E82               	line	460
  3768                           ;main.c: 460:     PORTCbits.RC6 = 0;
  3769                           	bcf	((c:3970)),c,6	;volatile
  3770  0073DA  9C82               	line	461
  3771                           ;main.c: 461:     PORTCbits.RC5 = 1;
  3772                           	bsf	((c:3970)),c,5	;volatile
  3773  0073DC  8A82               	line	462
  3774                           	
  3775                           l188:
  3776  0073DE                     	return	;funcret
  3777  0073DE  0012               	opt stack 0
  3778                           GLOBAL	__end_of_road4
  3779                           	__end_of_road4:
  3780  0073E0                     	signat	_road4,89
  3781                           	global	_road3
  3782                           
  3783 ;; *************** function _road3 *****************
  3784 ;; Defined at:
  3785 ;;		line 428 in file "main.c"
  3786 ;; Parameters:    Size  Location     Type
  3787 ;;		None
  3788 ;; Auto vars:     Size  Location     Type
  3789 ;;		None
  3790 ;; Return value:  Size  Location     Type
  3791 ;;                  1    wreg      void 
  3792 ;; Registers used:
  3793 ;;		None
  3794 ;; Tracked objects:
  3795 ;;		On entry : 0/0
  3796 ;;		On exit  : 0/0
  3797 ;;		Unchanged: 0/0
  3798 ;; Data sizes:     COMRAM   BANK0   BANK1   BANK2   BANK3   BANK4   BANK5
  3799 ;;      Params:         0       0       0       0       0       0       0
  3800 ;;      Locals:         0       0       0       0       0       0       0
  3801 ;;      Temps:          0       0       0       0       0       0       0
  3802 ;;      Totals:         0       0       0       0       0       0       0
  3803 ;;Total ram usage:        0 bytes
  3804 ;; Hardware stack levels used:    1
  3805 ;; This function calls:
  3806 ;;		Nothing
  3807 ;; This function is called by:
  3808 ;;		_cardDetected
  3809 ;;		_main
  3810 ;; This function uses a non-reentrant model
  3811 ;;
  3812                           psect	text3,class=CODE,space=0,reloc=2,group=0
  3813                           	line	428
  3814                           global __ptext3
  3815                           __ptext3:
  3816  0073AC                     psect	text3
  3817                           	file	"main.c"
  3818                           	line	428
  3819                           	global	__size_of_road3
  3820                           	__size_of_road3	equ	__end_of_road3-_road3
  3821  0000                     	
  3822                           _road3:
  3823  0073AC                     ;incstack = 0
  3824                           	opt	stack 30
  3825                           	line	429
  3826                           	
  3827                           l868:
  3828  0073AC                     ;main.c: 429:     PORTBbits.RB7 = 1;
  3829                           	bsf	((c:3969)),c,7	;volatile
  3830  0073AC  8E81               	line	430
  3831                           ;main.c: 430:     PORTBbits.RB6 = 0;
  3832                           	bcf	((c:3969)),c,6	;volatile
  3833  0073AE  9C81               	line	431
  3834                           ;main.c: 431:     PORTBbits.RB5 = 0;
  3835                           	bcf	((c:3969)),c,5	;volatile
  3836  0073B0  9A81               	line	433
  3837                           ;main.c: 433:     PORTBbits.RB4 = 1;
  3838                           	bsf	((c:3969)),c,4	;volatile
  3839  0073B2  8881               	line	434
  3840                           ;main.c: 434:     PORTBbits.RB3 = 0;
  3841                           	bcf	((c:3969)),c,3	;volatile
  3842  0073B4  9681               	line	435
  3843                           ;main.c: 435:     PORTBbits.RB2 = 0;
  3844                           	bcf	((c:3969)),c,2	;volatile
  3845  0073B6  9481               	line	437
  3846                           ;main.c: 437:     PORTDbits.RD7 = 0;
  3847                           	bcf	((c:3971)),c,7	;volatile
  3848  0073B8  9E83               	line	438
  3849                           ;main.c: 438:     PORTDbits.RD6 = 0;
  3850                           	bcf	((c:3971)),c,6	;volatile
  3851  0073BA  9C83               	line	439
  3852                           ;main.c: 439:     PORTDbits.RD4 = 1;
  3853                           	bsf	((c:3971)),c,4	;volatile
  3854  0073BC  8883               	line	441
  3855                           ;main.c: 441:     PORTCbits.RC7 = 1;
  3856                           	bsf	((c:3970)),c,7	;volatile
  3857  0073BE  8E82               	line	442
  3858                           ;main.c: 442:     PORTCbits.RC6 = 0;
  3859                           	bcf	((c:3970)),c,6	;volatile
  3860  0073C0  9C82               	line	443
  3861                           ;main.c: 443:     PORTCbits.RC5 = 0;
  3862                           	bcf	((c:3970)),c,5	;volatile
  3863  0073C2  9A82               	line	444
  3864                           	
  3865                           l185:
  3866  0073C4                     	return	;funcret
  3867  0073C4  0012               	opt stack 0
  3868                           GLOBAL	__end_of_road3
  3869                           	__end_of_road3:
  3870  0073C6                     	signat	_road3,89
  3871                           	global	_road2
  3872                           
  3873 ;; *************** function _road2 *****************
  3874 ;; Defined at:
  3875 ;;		line 410 in file "main.c"
  3876 ;; Parameters:    Size  Location     Type
  3877 ;;		None
  3878 ;; Auto vars:     Size  Location     Type
  3879 ;;		None
  3880 ;; Return value:  Size  Location     Type
  3881 ;;                  1    wreg      void 
  3882 ;; Registers used:
  3883 ;;		None
  3884 ;; Tracked objects:
  3885 ;;		On entry : 0/0
  3886 ;;		On exit  : 0/0
  3887 ;;		Unchanged: 0/0
  3888 ;; Data sizes:     COMRAM   BANK0   BANK1   BANK2   BANK3   BANK4   BANK5
  3889 ;;      Params:         0       0       0       0       0       0       0
  3890 ;;      Locals:         0       0       0       0       0       0       0
  3891 ;;      Temps:          0       0       0       0       0       0       0
  3892 ;;      Totals:         0       0       0       0       0       0       0
  3893 ;;Total ram usage:        0 bytes
  3894 ;; Hardware stack levels used:    1
  3895 ;; This function calls:
  3896 ;;		Nothing
  3897 ;; This function is called by:
  3898 ;;		_cardDetected
  3899 ;;		_main
  3900 ;; This function uses a non-reentrant model
  3901 ;;
  3902                           psect	text4,class=CODE,space=0,reloc=2,group=0
  3903                           	line	410
  3904                           global __ptext4
  3905                           __ptext4:
  3906  007392                     psect	text4
  3907                           	file	"main.c"
  3908                           	line	410
  3909                           	global	__size_of_road2
  3910                           	__size_of_road2	equ	__end_of_road2-_road2
  3911  0000                     	
  3912                           _road2:
  3913  007392                     ;incstack = 0
  3914                           	opt	stack 30
  3915                           	line	411
  3916                           	
  3917                           l866:
  3918  007392                     ;main.c: 411:     PORTBbits.RB7 = 1;
  3919                           	bsf	((c:3969)),c,7	;volatile
  3920  007392  8E81               	line	412
  3921                           ;main.c: 412:     PORTBbits.RB6 = 0;
  3922                           	bcf	((c:3969)),c,6	;volatile
  3923  007394  9C81               	line	413
  3924                           ;main.c: 413:     PORTBbits.RB5 = 0;
  3925                           	bcf	((c:3969)),c,5	;volatile
  3926  007396  9A81               	line	415
  3927                           ;main.c: 415:     PORTBbits.RB4 = 0;
  3928                           	bcf	((c:3969)),c,4	;volatile
  3929  007398  9881               	line	416
  3930                           ;main.c: 416:     PORTBbits.RB3 = 0;
  3931                           	bcf	((c:3969)),c,3	;volatile
  3932  00739A  9681               	line	417
  3933                           ;main.c: 417:     PORTBbits.RB2 = 1;
  3934                           	bsf	((c:3969)),c,2	;volatile
  3935  00739C  8481               	line	419
  3936                           ;main.c: 419:     PORTDbits.RD7 = 1;
  3937                           	bsf	((c:3971)),c,7	;volatile
  3938  00739E  8E83               	line	420
  3939                           ;main.c: 420:     PORTDbits.RD6 = 0;
  3940                           	bcf	((c:3971)),c,6	;volatile
  3941  0073A0  9C83               	line	421
  3942                           ;main.c: 421:     PORTDbits.RD4 = 0;
  3943                           	bcf	((c:3971)),c,4	;volatile
  3944  0073A2  9883               	line	423
  3945                           ;main.c: 423:     PORTCbits.RC7 = 1;
  3946                           	bsf	((c:3970)),c,7	;volatile
  3947  0073A4  8E82               	line	424
  3948                           ;main.c: 424:     PORTCbits.RC6 = 0;
  3949                           	bcf	((c:3970)),c,6	;volatile
  3950  0073A6  9C82               	line	425
  3951                           ;main.c: 425:     PORTCbits.RC5 = 0;
  3952                           	bcf	((c:3970)),c,5	;volatile
  3953  0073A8  9A82               	line	426
  3954                           	
  3955                           l182:
  3956  0073AA                     	return	;funcret
  3957  0073AA  0012               	opt stack 0
  3958                           GLOBAL	__end_of_road2
  3959                           	__end_of_road2:
  3960  0073AC                     	signat	_road2,89
  3961                           	global	_road1
  3962                           
  3963 ;; *************** function _road1 *****************
  3964 ;; Defined at:
  3965 ;;		line 392 in file "main.c"
  3966 ;; Parameters:    Size  Location     Type
  3967 ;;		None
  3968 ;; Auto vars:     Size  Location     Type
  3969 ;;		None
  3970 ;; Return value:  Size  Location     Type
  3971 ;;                  1    wreg      void 
  3972 ;; Registers used:
  3973 ;;		None
  3974 ;; Tracked objects:
  3975 ;;		On entry : 0/0
  3976 ;;		On exit  : 0/0
  3977 ;;		Unchanged: 0/0
  3978 ;; Data sizes:     COMRAM   BANK0   BANK1   BANK2   BANK3   BANK4   BANK5
  3979 ;;      Params:         0       0       0       0       0       0       0
  3980 ;;      Locals:         0       0       0       0       0       0       0
  3981 ;;      Temps:          0       0       0       0       0       0       0
  3982 ;;      Totals:         0       0       0       0       0       0       0
  3983 ;;Total ram usage:        0 bytes
  3984 ;; Hardware stack levels used:    1
  3985 ;; This function calls:
  3986 ;;		Nothing
  3987 ;; This function is called by:
  3988 ;;		_cardDetected
  3989 ;;		_main
  3990 ;; This function uses a non-reentrant model
  3991 ;;
  3992                           psect	text5,class=CODE,space=0,reloc=2,group=0
  3993                           	line	392
  3994                           global __ptext5
  3995                           __ptext5:
  3996  007378                     psect	text5
  3997                           	file	"main.c"
  3998                           	line	392
  3999                           	global	__size_of_road1
  4000                           	__size_of_road1	equ	__end_of_road1-_road1
  4001  0000                     	
  4002                           _road1:
  4003  007378                     ;incstack = 0
  4004                           	opt	stack 30
  4005                           	line	393
  4006                           	
  4007                           l864:
  4008  007378                     ;main.c: 393:     PORTBbits.RB7 = 0;
  4009                           	bcf	((c:3969)),c,7	;volatile
  4010  007378  9E81               	line	394
  4011                           ;main.c: 394:     PORTBbits.RB6 = 0;
  4012                           	bcf	((c:3969)),c,6	;volatile
  4013  00737A  9C81               	line	395
  4014                           ;main.c: 395:     PORTBbits.RB5 = 1;
  4015                           	bsf	((c:3969)),c,5	;volatile
  4016  00737C  8A81               	line	397
  4017                           ;main.c: 397:     PORTBbits.RB4 = 1;
  4018                           	bsf	((c:3969)),c,4	;volatile
  4019  00737E  8881               	line	398
  4020                           ;main.c: 398:     PORTBbits.RB3 = 0;
  4021                           	bcf	((c:3969)),c,3	;volatile
  4022  007380  9681               	line	399
  4023                           ;main.c: 399:     PORTBbits.RB2 = 0;
  4024                           	bcf	((c:3969)),c,2	;volatile
  4025  007382  9481               	line	401
  4026                           ;main.c: 401:     PORTDbits.RD7 = 1;
  4027                           	bsf	((c:3971)),c,7	;volatile
  4028  007384  8E83               	line	402
  4029                           ;main.c: 402:     PORTDbits.RD6 = 0;
  4030                           	bcf	((c:3971)),c,6	;volatile
  4031  007386  9C83               	line	403
  4032                           ;main.c: 403:     PORTDbits.RD4 = 0;
  4033                           	bcf	((c:3971)),c,4	;volatile
  4034  007388  9883               	line	405
  4035                           ;main.c: 405:     PORTCbits.RC7 = 1;
  4036                           	bsf	((c:3970)),c,7	;volatile
  4037  00738A  8E82               	line	406
  4038                           ;main.c: 406:     PORTCbits.RC6 = 0;
  4039                           	bcf	((c:3970)),c,6	;volatile
  4040  00738C  9C82               	line	407
  4041                           ;main.c: 407:     PORTCbits.RC5 = 0;
  4042                           	bcf	((c:3970)),c,5	;volatile
  4043  00738E  9A82               	line	408
  4044                           	
  4045                           l179:
  4046  007390                     	return	;funcret
  4047  007390  0012               	opt stack 0
  4048                           GLOBAL	__end_of_road1
  4049                           	__end_of_road1:
  4050  007392                     	signat	_road1,89
  4051                           	GLOBAL	__activetblptr
  4052                           __activetblptr	EQU	2
  4053  0000                     	psect	intsave_regs,class=BIGRAM,space=1,noexec
  4054                           	PSECT	rparam,class=COMRAM,space=1,noexec
  4055                           	GLOBAL	__Lrparam
  4056                           	FNCONF	rparam,??,?
  4057                           	GLOBAL	___rparam_used
  4058                           	___rparam_used EQU 1
  4059  0000                     	GLOBAL	___param_bank
  4060                           	___param_bank EQU 0
  4061  0000                     GLOBAL	__Lparam, __Hparam
  4062                           GLOBAL	__Lrparam, __Hrparam
  4063                           __Lparam	EQU	__Lrparam
  4064  0000                     __Hparam	EQU	__Hrparam
  4065  0000                     	end


Data Sizes:
    Strings     0
    Constant    0
    Data        2
    BSS         0
    Persistent  0
    Stack       0

Auto Spaces:
    Space          Size  Autos    Used
    COMRAM           95     20      22
    BANK0           160      0       0
    BANK1           256      0       0
    BANK2           256      0       0
    BANK3           256      0       0
    BANK4           256      0       0
    BANK5           256      0       0

Pointer List with Targets:

    None.

Critical Paths under _main in COMRAM

    _main->_cardDetected

Critical Paths under _main in BANK0

    None.

Critical Paths under _main in BANK1

    None.

Critical Paths under _main in BANK2

    None.

Critical Paths under _main in BANK3

    None.

Critical Paths under _main in BANK4

    None.

Critical Paths under _main in BANK5

    None.

Call Graph Tables:

 ---------------------------------------------------------------------------------
 (Depth) Function   	        Calls       Base Space   Used Autos Params    Refs
 ---------------------------------------------------------------------------------
 (0) _main                                                18    18      0     240
                                              2 COMRAM    18    18      0
                       _cardDetected
                              _road1
                              _road2
                              _road3
                              _road4
 ---------------------------------------------------------------------------------
 (1) _cardDetected                                         2     2      0       0
                                              0 COMRAM     2     2      0
                              _road1
                              _road2
                              _road3
                              _road4
 ---------------------------------------------------------------------------------
 (1) _road4                                                0     0      0       0
 ---------------------------------------------------------------------------------
 (1) _road3                                                0     0      0       0
 ---------------------------------------------------------------------------------
 (1) _road2                                                0     0      0       0
 ---------------------------------------------------------------------------------
 (1) _road1                                                0     0      0       0
 ---------------------------------------------------------------------------------
 Estimated maximum stack depth 1
 ---------------------------------------------------------------------------------

 Call Graph Graphs:

 _main (ROOT)
   _cardDetected
     _road1
     _road2
     _road3
     _road4
   _road1
   _road2
   _road3
   _road4

 Address spaces:
Name               Size   Autos  Total    Cost      Usage
BIGRAM             5FF      0       0      16        0.0%
EEDATA             100      0       0       0        0.0%
BITBANK5           100      0       0      14        0.0%
BANK5              100      0       0      15        0.0%
BITBANK4           100      0       0      12        0.0%
BANK4              100      0       0      13        0.0%
BITBANK3           100      0       0      10        0.0%
BANK3              100      0       0      11        0.0%
BITBANK2           100      0       0       7        0.0%
BANK2              100      0       0       8        0.0%
BITBANK1           100      0       0       5        0.0%
BANK1              100      0       0       6        0.0%
BITBANK0            A0      0       0       3        0.0%
BANK0               A0      0       0       4        0.0%
BITCOMRAM           5F      0       0       0        0.0%
COMRAM              5F     14      16       1       23.2%
BITSFR_1             0      0       0     200        0.0%
SFR_1                0      0       0     200        0.0%
BITSFR               0      0       0     200        0.0%
SFR                  0      0       0     200        0.0%
STACK                0      0       0       2        0.0%
NULL                 0      0       0       0        0.0%
ABS                  0      0      16       9        0.0%
DATA                 0      0      16      17        0.0%
CODE                 0      0       0       0        0.0%


Microchip Technology PIC18 Macro Assembler V2.00 build -1524193055 
Symbol Table                                                                                   Fri Dec 28 11:47:20 2018

                     l60 7962                       l61 7962                       l53 7A6A  
                     l70 79C2                       l54 791E                       l71 7A66  
                     l63 797E                       l55 78B6                       l80 7AAE  
                     l72 79C6                       l56 795A                       l81 7AB2  
                     l73 79E6                       l65 799A                       l57 78BA  
                     l90 7B92                       l82 7AD2                       l74 7A06  
                     l58 78DA                       l91 7B96                       l83 7B3A  
                     l75 7FFA                       l67 79BA                       l59 78FA  
                     l92 7C02                       l84 7B3A                       l76 7C42  
                     l68 79BE                       l93 7B9A                       l77 7AF6  
                     l69 7A2A                       l94 7C3E                       l86 7B56  
                     l78 7A8E                       l95 7BBA                       l79 7B32  
                     l96 7BBE                       l88 7B72                       l97 7BDE  
                     l98 7FFA                       l99 7E1A                       u10 78A0  
                     u11 789C                       u20 78AE                       u21 78AA  
                     u30 7970                       u31 796C                       u40 797E  
                     u41 797A                       u50 798C                       u51 7988  
                     u60 799A                       u61 7996                       u70 79A8  
                     u71 79A4                       u80 79B6                       u81 79B2  
                     u90 7A78                       u91 7A74             __CFG_CP0$OFF 000000  
           __CFG_CP1$OFF 000000             __CFG_CP2$OFF 000000             __CFG_CP3$OFF 000000  
            __CFG_LVP$ON 000000                      l100 7CCE                      l101 7C66  
                    l102 7D0A                      l111 7D4A                      l103 7C86  
                    l120 7DB6                      l104 7CA6                      l121 7FF6  
                    l113 7D6A                      l105 7CAA                      l122 7FF2  
                    l130 7EEA                      l114 7D6E                      l106 7D12  
                    l123 7EA6                      l115 7DDA                      l107 7D12  
                    l140 7FEE                      l132 7F06                      l124 7E3E  
                    l116 7D72                      l141 7F6A                      l125 7EE2  
                    l117 7E16                      l109 7D2E                      l142 7F8A  
                    l134 7F22                      l126 7E5E                      l118 7D92  
                    l150 748C                      l143 7FAA                      l127 7E7E  
                    l119 7DB2                      l151 74DE                      l144 7FFE  
                    l136 7F42                      l128 7E9E                      l160 766C  
                    l152 74BA                      l137 7F46                      l129 7EEA  
                    l161 7648                      l153 750E                      l138 7FB2  
                    l170 77DE                      l162 76A4                      l154 7560  
                    l139 7F4A                      l171 7832                      l163 76F6  
                    l155 753C                      l172 7884                      l164 76D2  
                    l156 7598                      l173 7860                      l165 7726  
                    l157 75EA                      l149 7454                      l182 73AA  
                    l174 7888                      l166 7778                      l158 75C6  
                    l175 788C                      l167 7754                      l159 761A  
                    l176 788C                      l168 77B0                      l185 73C4  
                    l169 7802                      l179 7390                      l188 73DE  
                    l900 7A0A                      l910 7A92                      l902 7A26  
                    l912 7AB6                      l920 7B32                      l904 7A2A  
                    l930 7BC2                      l922 7B48                      l914 7AD6  
                    l906 7A78                      l940 7C62                      l932 7BE2  
                    l924 7B64                      l916 7AF2                      l908 7A8A  
                    l870 73C6                      l942 7C6A                      l950 7CCE  
                    l934 7BFE                      l926 7B80                      l918 7AF6  
                    l864 7378                      l960 7D76                      l944 7C8A  
                    l952 7D0A                      l928 7B9E                      l936 7C02  
                    l880 78DE                      l872 7890                      l866 7392  
                    l970 7E28                      l962 7D96                      l954 7D20  
                    l946 7CAE                      l938 7C50                      l890 7970  
                    l882 78FE                      l874 78A0                      l868 73AC  
                    l980 7EA2                      l972 7E3A                      l964 7DBA  
                    l956 7D3C                      l948 7CCA                      l892 798C  
                    l884 791A                      l876 78B2                      l990 7F30  
                    l974 7E42                      l982 7EA6                      l966 7DD6  
                    l958 7D58                      l894 79A8                      l878 78BE  
                    l886 791E                      l992 7F4E                      l976 7E62  
                    l984 7EE2                      l968 7DDA                      l896 79CA  
                    l888 795A                      l994 7F6E                      l986 7EF8  
                    l978 7E82                      l898 79EA                      l996 7F8E  
                    l988 7F14                      l998 7FAE             __CFG_CPB$OFF 000000  
                    u100 7A86                      u101 7A82                      u110 7B48  
                    u111 7B44                      u200 7D2E                      u120 7B56  
                    u201 7D2A                      u121 7B52                      u210 7D3C  
                    u130 7B64                      u211 7D38                      u131 7B60  
                    u300 7F22                      u220 7D4A                      u140 7B72  
                    u301 7F1E                      u221 7D46                      u141 7B6E  
                    u310 7F30                      u230 7D58                      u150 7B80  
                    u311 7F2C                      u231 7D54                      u151 7B7C  
                    u320 7F3E                      u240 7D66                      u160 7B8E  
                    u400 75BE                      u321 7F3A                      u241 7D62  
                    u161 7B8A                      u401 75BA                      u250 7E28  
                    u170 7C50                      u410 75E6                      u330 7484  
                    u251 7E24                      u171 7C4C                      u411 75E2  
                    u331 7480                      u260 7E36                      u180 7C5E  
                    u500 7774                      u420 7612                      u340 74B2  
                    u261 7E32                      u181 7C5A                      u501 7770  
                    u421 760E                      u341 74AE                      u270 7EF8  
                    u190 7D20                      u510 77A8                      u430 7640  
                    u350 74DA                      u271 7EF4                      u191 7D1C  
                    u511 77A4                      u431 763C                      u351 74D6  
                    u280 7F06                      u520 77D6                      u440 7668  
                    u360 7506                      u281 7F02                      u521 77D2  
                    u441 7664                      u361 7502                      u290 7F14  
                    u530 77FE                      u450 769C                      u370 7534  
           __CFG_CPD$OFF 000000                      u291 7F10                      u531 77FA  
                    u451 7698                      u371 7530                      u540 782A  
                    u460 76CA                      u380 755C                      u541 7826  
                    u461 76C6                      u381 7558                      u550 7858  
                    u470 76F2                      u390 7590                      u551 7854  
                    u471 76EE                      u607 7624                      u391 758C  
                    u560 7880                      u480 771E                      u561 787C  
                    u481 771A                      u617 76AE                      u490 774C  
                    u707 7A14                      u491 7748                      u627 7730  
                    u717 7A9C                      u637 77BA                      u807 7D80  
                    u727 7AC0                      u647 783C                      u817 7DA0  
                    u737 7AE0                      u657 78C8                      u577 7496  
                    u827 7DC4                      u747 7BA8                      u667 78E8  
                    u587 7518                      u837 7E4C                      u757 7BCC  
                    u677 7908                      u597 75A2                      u847 7E6C  
                    u767 7BEC                      u687 79D4                      u857 7E8C  
                    u777 7C74                      u697 79F4                      u867 7F58  
                    u787 7C94                      u877 7F78                      u797 7CB8  
                    u887 7F98                      wreg 000FE8                     l1000 7FB2  
                   l1100 75CA                     l1110 761A                     l1102 75EA  
                   l1112 7632                     l1120 766C                     l1104 75EE  
                   l1040 7418                     l1130 76A4                     l1122 7674  
                   l1114 7640                     l1106 75F6                     l1050 7468  
                   l1042 741E                     l1034 7402                     l1132 76BC  
                   l1140 76F6                     l1124 7676                     l1116 7648  
                   l1108 7616                     l1060 74BA                     l1052 7488  
                   l1044 7420                     l1036 740A                     l1150 773E  
                   l1142 76FA                     l1134 76CA                     l1126 7680  
                   l1118 764C                     l1070 750A                     l1062 74BE  
                   l1054 748C                     l1046 745C                     l1038 740C  
                   l1160 7780                     l1152 774C                     l1144 7702  
                   l1136 76D2                     l1128 76A0                     l1080 7540  
                   l1072 750E                     l1056 74A4                     l1064 74DE  
                   l1048 745E                     l1170 77C8                     l1162 7782  
                   l1154 7754                     l1146 7722                     l1138 76D6  
                   l1090 7594                     l1074 7526                     l1082 7560  
                   l1066 74E2                     l1058 74B2                     l1180 7806  
                   l1172 77D6                     l1164 778C                     l1156 7758  
                   l1148 7726                     l1092 7598                     l1084 7568  
                   l1076 7534                     l1068 74EA                     l1190 7858  
                   l1182 780E                     l1174 77DE                     l1166 77AC  
                   l1158 7778                     l1094 75B0                     l1086 756A  
                   l1078 753C                     l1360 7B0C                     l1192 7860  
                   l1184 782E                     l1176 77E2                     l1168 77B0  
                   l1096 75BE                     l1088 7574                     l1370 7FC8  
                   l1362 7C18                     l1194 7864                     l1186 7832  
                   l1178 7802                     l1098 75C6                     l1364 7CE4  
                   l1356 7934                     l1188 784A                     l1366 7DF0  
                   l1358 7A40                     l1368 7EBC                     _main 7402  
          __CFG_BORV$190 000000                     start 0000            __CFG_IESO$OFF 000000  
           ___param_bank 000000                    ?_main 0001                    _PORTA 000F80  
                  _PORTB 000F81                    _PORTC 000F82                    _PORTD 000F83  
                  _TRISA 000F92                    _TRISB 000F93                    _TRISC 000F94  
                  _TRISD 000F95            __CFG_WRT0$OFF 000000            __CFG_WRT1$OFF 000000  
          __CFG_WRT2$OFF 000000            __CFG_WRT3$OFF 000000           __CFG_EBTR0$OFF 000000  
         __CFG_FCMEN$OFF 000000           __CFG_EBTR1$OFF 000000           __CFG_EBTR2$OFF 000000  
         __CFG_EBTR3$OFF 000000            __CFG_WRTB$OFF 000000            __CFG_WRTC$OFF 000000  
          __CFG_WRTD$OFF 000000           __CFG_EBTRB$OFF 000000                    _road1 7378  
                  _road2 7392                    _road3 73AC                    _road4 73C6  
     __CFG_MCLRE$INTMCLR 000000                    main@i 0005                    tablat 000FF5  
                  status 000FD8           __CFG_HFOFST$ON 000000    __size_of_cardDetected 0770  
        __initialization 73E0             __end_of_main 7890                   ??_main 0003  
          __activetblptr 000002                   ?_road1 0001                   ?_road2 0001  
                 ?_road3 0001                   ?_road4 0001                   _ANSELA 000F38  
                 _ANSELB 000F39                   _ANSELC 000F3A                   _ANSELD 000F3B  
           _cardDetected 7890           __CFG_WDTEN$OFF 000000           __CFG_XINST$OFF 000000  
         __CFG_STVREN$ON 000000                   _option 0015             __pdataCOMRAM 0015  
                 tblptrh 000FF7                   tblptrl 000FF6                   tblptru 000FF8  
             __accesstop 0060  __end_of__initialization 73F8          __CFG_PBADEN$OFF 000000  
          ___rparam_used 000001           __pcstackCOMRAM 0001            __end_of_road1 7392  
          __end_of_road2 73AC            __end_of_road3 73C6            __end_of_road4 73E0  
                ??_road1 0001                  ??_road2 0001                  ??_road3 0001  
                ??_road4 0001          __CFG_PLLCFG$OFF 000000       __CFG_CCP2MX$PORTC1 000000  
     __CFG_CCP3MX$PORTB5 000000          __CFG_PWRTEN$OFF 000000                  __Hparam 0000  
                __Lparam 0000                  __pcinit 73E0                  __ramtop 0600  
                __ptext0 7402                  __ptext1 7890                  __ptext2 73C6  
                __ptext3 73AC                  __ptext4 7392                  __ptext5 7378  
   end_of_initialization 73F8            __Lmediumconst 0000                _PORTAbits 000F80  
              _PORTBbits 000F81                _PORTCbits 000F82                _PORTDbits 000F83  
          __pidataCOMRAM 7376      start_initialization 73E0         __CFG_PRICLKEN$ON 000000  
         __size_of_road1 001A           __size_of_road2 001A           __size_of_road3 001A  
         __size_of_road4 001A            ?_cardDetected 0001         __CFG_WDTPS$32768 000000  
              main@i_730 000D                main@i_731 000F                main@i_732 0011  
              main@i_733 0013                main@i_727 0007                main@i_728 0009  
              main@i_729 000B           ??_cardDetected 0001                 __Hrparam 0000  
               __Lrparam 0000       __CFG_BOREN$SBORDIS 000000        __CFG_P2BMX$PORTD2 000000  
          __size_of_main 048E              _OSCTUNEbits 000F9B               _INTCONbits 000FF2  
             _OSCCONbits 000FD3     __end_of_cardDetected 8000        __CFG_T3CMX$PORTC0 000000  
      __CFG_FOSC$INTIO67 000000  
